ARM GAS  /var/folders/gd/b85s80v10ws684278k5gqzcr0000gn/T//ccVs91sC.s 			page 1


   1              		.cpu cortex-m4
   2              		.eabi_attribute 27, 1
   3              		.eabi_attribute 28, 1
   4              		.eabi_attribute 20, 1
   5              		.eabi_attribute 21, 1
   6              		.eabi_attribute 23, 3
   7              		.eabi_attribute 24, 1
   8              		.eabi_attribute 25, 1
   9              		.eabi_attribute 26, 1
  10              		.eabi_attribute 30, 2
  11              		.eabi_attribute 34, 1
  12              		.eabi_attribute 18, 4
  13              		.file	"process_image.c"
  14              		.text
  15              	.Ltext0:
  16              		.cfi_sections	.debug_frame
  17              		.section	.text.ProcessImage,"ax",%progbits
  18              		.align	1
  19              		.p2align 4,,15
  20              		.syntax unified
  21              		.thumb
  22              		.thumb_func
  23              		.fpu fpv4-sp-d16
  24              		.type	ProcessImage, %function
  25              	ProcessImage:
  26              	.LFB258:
  27              		.file 1 "process_image.c"
  28              		.loc 1 46 0
  29              		.cfi_startproc
  30              		@ args = 0, pretend = 0, frame = 648
  31              		@ frame_needed = 0, uses_anonymous_args = 0
  32              	.LVL0:
  33 0000 30B5     		push	{r4, r5, lr}
  34              		.cfi_def_cfa_offset 12
  35              		.cfi_offset 4, -12
  36              		.cfi_offset 5, -8
  37              		.cfi_offset 14, -4
  38              	.LBB38:
  39              	.LBB39:
  40              		.file 2 "../../lib/e-puck2_main-processor/ChibiOS//os/rt/include/chregistry.h"
  41              		.loc 2 135 0
  42 0002 164A     		ldr	r2, .L8
  43              	.LBE39:
  44              	.LBE38:
  45              		.loc 1 46 0
  46 0004 164B     		ldr	r3, .L8+4
  47              	.LBB41:
  48              	.LBB40:
  49              		.loc 2 135 0
  50 0006 9269     		ldr	r2, [r2, #24]
  51 0008 1649     		ldr	r1, .L8+8
  52 000a 9161     		str	r1, [r2, #24]
  53              	.LBE40:
  54              	.LBE41:
  55              		.loc 1 46 0
  56 000c ADF5237D 		sub	sp, sp, #652
  57              		.cfi_def_cfa_offset 664
ARM GAS  /var/folders/gd/b85s80v10ws684278k5gqzcr0000gn/T//ccVs91sC.s 			page 2


  58              		.loc 1 46 0
  59 0010 1B68     		ldr	r3, [r3]
  60 0012 A193     		str	r3, [sp, #644]
  61              		.loc 1 52 0
  62 0014 01A8     		add	r0, sp, #4
  63              	.LVL1:
  64 0016 4FF42072 		mov	r2, #640
  65 001a 0021     		movs	r1, #0
  66 001c FFF7FEFF 		bl	memset
  67              	.LVL2:
  68              	.LBB42:
  69              	.LBB43:
  70              	.LBB44:
  71              		.file 3 "../../lib/e-puck2_main-processor/ChibiOS//os/rt/include/chbsem.h"
  72              		.loc 3 143 0
  73 0020 114D     		ldr	r5, .L8+12
  74 0022 0DF28324 		addw	r4, sp, #643
  75              	.L3:
  76              	.LVL3:
  77 0026 2846     		mov	r0, r5
  78 0028 FFF7FEFF 		bl	chSemWait
  79              	.LVL4:
  80              	.LBE44:
  81              	.LBE43:
  82              		.loc 1 58 0
  83 002c FFF7FEFF 		bl	dcmi_get_last_image_ptr
  84              	.LVL5:
  85 0030 0DF10302 		add	r2, sp, #3
  86 0034 0130     		adds	r0, r0, #1
  87              	.LVL6:
  88              	.L2:
  89              	.LBB45:
  90              	.LBB46:
  91              	.LBB47:
  92              		.loc 1 74 0
  93 0036 10F8011C 		ldrb	r1, [r0, #-1]	@ zero_extendqisi2
  94              	.LVL7:
  95 003a 10F8023B 		ldrb	r3, [r0], #2	@ zero_extendqisi2
  96              	.LVL8:
  97 003e 03EB0123 		add	r3, r3, r1, lsl #8
  98              	.LVL9:
  99 0042 C3F34513 		ubfx	r3, r3, #5, #6
 100              		.loc 1 75 0
 101 0046 02F8013F 		strb	r3, [r2, #1]!
 102              	.LVL10:
 103              	.LBE47:
 104              	.LBE46:
 105              		.loc 1 62 0
 106 004a 9442     		cmp	r4, r2
 107 004c F3D1     		bne	.L2
 108              	.LBE45:
 109              		.loc 1 82 0
 110 004e 4FF42071 		mov	r1, #640
 111 0052 01A8     		add	r0, sp, #4
 112 0054 FFF7FEFF 		bl	SendUint8ToComputer
 113              	.LVL11:
 114              	.LBE42:
ARM GAS  /var/folders/gd/b85s80v10ws684278k5gqzcr0000gn/T//ccVs91sC.s 			page 3


 115              		.loc 1 54 0
 116 0058 E5E7     		b	.L3
 117              	.L9:
 118 005a 00BF     		.align	2
 119              	.L8:
 120 005c 00000000 		.word	ch
 121 0060 00000000 		.word	__stack_chk_guard
 122 0064 00000000 		.word	.LANCHOR0
 123 0068 00000000 		.word	.LANCHOR1
 124              		.cfi_endproc
 125              	.LFE258:
 126              		.size	ProcessImage, .-ProcessImage
 127              		.section	.text.CaptureImage,"ax",%progbits
 128              		.align	1
 129              		.p2align 4,,15
 130              		.syntax unified
 131              		.thumb
 132              		.thumb_func
 133              		.fpu fpv4-sp-d16
 134              		.type	CaptureImage, %function
 135              	CaptureImage:
 136              	.LFB257:
 137              		.loc 1 23 0
 138              		.cfi_startproc
 139              		@ Volatile: function does not return.
 140              		@ args = 0, pretend = 0, frame = 8
 141              		@ frame_needed = 0, uses_anonymous_args = 0
 142              	.LVL12:
 143 0000 80B5     		push	{r7, lr}
 144              		.cfi_def_cfa_offset 8
 145              		.cfi_offset 7, -8
 146              		.cfi_offset 14, -4
 147              	.LBB64:
 148              	.LBB65:
 149              		.loc 2 135 0
 150 0002 234C     		ldr	r4, .L16
 151              	.LBE65:
 152              	.LBE64:
 153              		.loc 1 23 0
 154 0004 234A     		ldr	r2, .L16+4
 155              	.LBB68:
 156              	.LBB66:
 157              		.loc 2 135 0
 158 0006 A369     		ldr	r3, [r4, #24]
 159 0008 2349     		ldr	r1, .L16+8
 160              	.LBE66:
 161              	.LBE68:
 162              		.loc 1 23 0
 163 000a 1668     		ldr	r6, [r2]
 164              	.LBB69:
 165              	.LBB67:
 166              		.loc 2 135 0
 167 000c 9961     		str	r1, [r3, #24]
 168              	.LBE67:
 169              	.LBE69:
 170              		.loc 1 23 0
 171 000e 86B0     		sub	sp, sp, #24
ARM GAS  /var/folders/gd/b85s80v10ws684278k5gqzcr0000gn/T//ccVs91sC.s 			page 4


 172              		.cfi_def_cfa_offset 32
 173              		.loc 1 29 0
 174 0010 0223     		movs	r3, #2
 175 0012 2025     		movs	r5, #32
 176 0014 0A22     		movs	r2, #10
 177 0016 0021     		movs	r1, #0
 178 0018 0093     		str	r3, [sp]
 179              		.loc 1 23 0
 180 001a 0596     		str	r6, [sp, #20]
 181              		.loc 1 29 0
 182 001c 4FF42073 		mov	r3, #640
 183 0020 CDE90155 		strd	r5, r5, [sp, #4]
 184 0024 3020     		movs	r0, #48
 185              	.LVL13:
 186 0026 1D4E     		ldr	r6, .L16+12
 187              	.LBB70:
 188              	.LBB71:
 189              	.LBB72:
 190              	.LBB73:
 191              		.file 4 "../../lib/e-puck2_main-processor/ChibiOS//os/rt/include/chsys.h"
 192              		.loc 4 367 0
 193 0028 1D4F     		ldr	r7, .L16+16
 194              	.LBE73:
 195              	.LBE72:
 196              	.LBE71:
 197              	.LBE70:
 198              		.loc 1 29 0
 199 002a FFF7FEFF 		bl	po8030_advanced_config
 200              	.LVL14:
 201              		.loc 1 30 0
 202 002e FFF7FEFF 		bl	dcmi_enable_double_buffering
 203              	.LVL15:
 204              		.loc 1 31 0
 205 0032 0020     		movs	r0, #0
 206 0034 FFF7FEFF 		bl	dcmi_set_capture_mode
 207              	.LVL16:
 208              	.LBB91:
 209              	.LBB88:
 210              	.LBB78:
 211              	.LBB79:
 212              		.loc 3 271 0
 213 0038 B046     		mov	r8, r6
 214              	.LBE79:
 215              	.LBE78:
 216              	.LBE88:
 217              	.LBE91:
 218              		.loc 1 32 0
 219 003a FFF7FEFF 		bl	dcmi_prepare
 220              	.LVL17:
 221 003e 13E0     		b	.L13
 222              	.LVL18:
 223              	.L11:
 224              	.LBB92:
 225              	.LBB89:
 226              		.loc 3 286 0
 227 0040 FFF7FEFF 		bl	chSchRescheduleS
 228              	.LVL19:
ARM GAS  /var/folders/gd/b85s80v10ws684278k5gqzcr0000gn/T//ccVs91sC.s 			page 5


 229              	.LBB81:
 230              	.LBB77:
 231              		.loc 4 360 0
 232 0044 FFF7FEFF 		bl	_dbg_check_unlock
 233              	.LVL20:
 234              		.loc 4 361 0
 235 0048 FFF7FEFF 		bl	_stats_stop_measure_crit_thd
 236              	.LVL21:
 237              		.loc 4 367 0
 238 004c 2368     		ldr	r3, [r4]
 239 004e A342     		cmp	r3, r4
 240 0050 07D0     		beq	.L12
 241 0052 A269     		ldr	r2, [r4, #24]
 242 0054 9B68     		ldr	r3, [r3, #8]
 243 0056 9268     		ldr	r2, [r2, #8]
 244 0058 9A42     		cmp	r2, r3
 245 005a 02D2     		bcs	.L12
 246 005c 3846     		mov	r0, r7
 247 005e FFF7FEFF 		bl	chSysHalt
 248              	.LVL22:
 249              	.L12:
 250              	.LBB74:
 251              	.LBB75:
 252              	.LBB76:
 253              		.file 5 "../../lib/e-puck2_main-processor/ChibiOS//os/ext/CMSIS/include/core_cmFunc.h"
 254              		.loc 5 546 0
 255 0062 0023     		movs	r3, #0
 256              		.syntax unified
 257              	@ 546 "../../lib/e-puck2_main-processor/ChibiOS//os/ext/CMSIS/include/core_cmFunc.h" 1
 258 0064 83F31188 		MSR basepri, r3
 259              	@ 0 "" 2
 260              	.LVL23:
 261              		.thumb
 262              		.syntax unified
 263              	.L13:
 264              	.LBE76:
 265              	.LBE75:
 266              	.LBE74:
 267              	.LBE77:
 268              	.LBE81:
 269              	.LBE89:
 270              	.LBE92:
 271              		.loc 1 36 0 discriminator 1
 272 0068 FFF7FEFF 		bl	dcmi_capture_start
 273              	.LVL24:
 274              		.loc 1 38 0 discriminator 1
 275 006c FFF7FEFF 		bl	wait_image_ready
 276              	.LVL25:
 277              	.LBB93:
 278              	.LBB90:
 279              	.LBB82:
 280              	.LBB83:
 281              	.LBB84:
 282              	.LBB85:
 283              	.LBB86:
 284              		.loc 5 546 0 discriminator 1
 285              		.syntax unified
ARM GAS  /var/folders/gd/b85s80v10ws684278k5gqzcr0000gn/T//ccVs91sC.s 			page 6


 286              	@ 546 "../../lib/e-puck2_main-processor/ChibiOS//os/ext/CMSIS/include/core_cmFunc.h" 1
 287 0070 85F31188 		MSR basepri, r5
 288              	@ 0 "" 2
 289              	.LVL26:
 290              		.thumb
 291              		.syntax unified
 292              	.LBE86:
 293              	.LBE85:
 294              	.LBE84:
 295              		.loc 4 349 0 discriminator 1
 296 0074 FFF7FEFF 		bl	_stats_start_measure_crit_thd
 297              	.LVL27:
 298              		.loc 4 350 0 discriminator 1
 299 0078 FFF7FEFF 		bl	_dbg_check_lock
 300              	.LVL28:
 301              	.LBE83:
 302              	.LBE82:
 303              	.LBB87:
 304              	.LBB80:
 305              		.loc 3 268 0 discriminator 1
 306 007c FFF7FEFF 		bl	chDbgCheckClassI
 307              	.LVL29:
 308              		.loc 3 270 0 discriminator 1
 309 0080 B368     		ldr	r3, [r6, #8]
 310 0082 002B     		cmp	r3, #0
 311 0084 DCDC     		bgt	.L11
 312              		.loc 3 271 0
 313 0086 4046     		mov	r0, r8
 314 0088 FFF7FEFF 		bl	chSemSignalI
 315              	.LVL30:
 316 008c D8E7     		b	.L11
 317              	.L17:
 318 008e 00BF     		.align	2
 319              	.L16:
 320 0090 00000000 		.word	ch
 321 0094 00000000 		.word	__stack_chk_guard
 322 0098 00000000 		.word	.LANCHOR2
 323 009c 00000000 		.word	.LANCHOR1
 324 00a0 00000000 		.word	.LANCHOR3
 325              	.LBE80:
 326              	.LBE87:
 327              	.LBE90:
 328              	.LBE93:
 329              		.cfi_endproc
 330              	.LFE257:
 331              		.size	CaptureImage, .-CaptureImage
 332              		.section	.text.get_distance_cm,"ax",%progbits
 333              		.align	1
 334              		.p2align 4,,15
 335              		.global	get_distance_cm
 336              		.syntax unified
 337              		.thumb
 338              		.thumb_func
 339              		.fpu fpv4-sp-d16
 340              		.type	get_distance_cm, %function
 341              	get_distance_cm:
 342              	.LFB259:
ARM GAS  /var/folders/gd/b85s80v10ws684278k5gqzcr0000gn/T//ccVs91sC.s 			page 7


 343              		.loc 1 87 0
 344              		.cfi_startproc
 345              		@ args = 0, pretend = 0, frame = 8
 346              		@ frame_needed = 0, uses_anonymous_args = 0
 347 0000 00B5     		push	{lr}
 348              		.cfi_def_cfa_offset 4
 349              		.cfi_offset 14, -4
 350 0002 074B     		ldr	r3, .L22
 351 0004 83B0     		sub	sp, sp, #12
 352              		.cfi_def_cfa_offset 16
 353              		.loc 1 87 0
 354 0006 1A68     		ldr	r2, [r3]
 355 0008 0192     		str	r2, [sp, #4]
 356              		.loc 1 89 0
 357 000a 019A     		ldr	r2, [sp, #4]
 358 000c 1B68     		ldr	r3, [r3]
 359 000e 9A42     		cmp	r2, r3
 360 0010 04D1     		bne	.L21
 361 0012 9FED040A 		vldr.32	s0, .L22+4
 362 0016 03B0     		add	sp, sp, #12
 363              		.cfi_remember_state
 364              		.cfi_def_cfa_offset 4
 365              		@ sp needed
 366 0018 5DF804FB 		ldr	pc, [sp], #4
 367              	.L21:
 368              		.cfi_restore_state
 369 001c FFF7FEFF 		bl	__stack_chk_fail
 370              	.LVL31:
 371              	.L23:
 372              		.align	2
 373              	.L22:
 374 0020 00000000 		.word	__stack_chk_guard
 375 0024 00000000 		.word	0
 376              		.cfi_endproc
 377              	.LFE259:
 378              		.size	get_distance_cm, .-get_distance_cm
 379              		.section	.text.process_image_start,"ax",%progbits
 380              		.align	1
 381              		.p2align 4,,15
 382              		.global	process_image_start
 383              		.syntax unified
 384              		.thumb
 385              		.thumb_func
 386              		.fpu fpv4-sp-d16
 387              		.type	process_image_start, %function
 388              	process_image_start:
 389              	.LFB260:
 390              		.loc 1 91 0
 391              		.cfi_startproc
 392              		@ args = 0, pretend = 0, frame = 8
 393              		@ frame_needed = 0, uses_anonymous_args = 0
 394 0000 30B5     		push	{r4, r5, lr}
 395              		.cfi_def_cfa_offset 12
 396              		.cfi_offset 4, -12
 397              		.cfi_offset 5, -8
 398              		.cfi_offset 14, -4
 399 0002 0E4C     		ldr	r4, .L28
ARM GAS  /var/folders/gd/b85s80v10ws684278k5gqzcr0000gn/T//ccVs91sC.s 			page 8


 400              		.loc 1 92 0
 401 0004 0E4B     		ldr	r3, .L28+4
 402              		.loc 1 91 0
 403 0006 2268     		ldr	r2, [r4]
 404              		.loc 1 92 0
 405 0008 0E48     		ldr	r0, .L28+8
 406              		.loc 1 91 0
 407 000a 85B0     		sub	sp, sp, #20
 408              		.cfi_def_cfa_offset 32
 409              		.loc 1 92 0
 410 000c 0025     		movs	r5, #0
 411              		.loc 1 91 0
 412 000e 0392     		str	r2, [sp, #12]
 413              		.loc 1 92 0
 414 0010 4FF4AF61 		mov	r1, #1400
 415 0014 4022     		movs	r2, #64
 416 0016 0095     		str	r5, [sp]
 417 0018 FFF7FEFF 		bl	chThdCreateStatic
 418              	.LVL32:
 419              		.loc 1 93 0
 420 001c 0A4B     		ldr	r3, .L28+12
 421 001e 0095     		str	r5, [sp]
 422 0020 4022     		movs	r2, #64
 423 0022 0A48     		ldr	r0, .L28+16
 424 0024 4FF41E71 		mov	r1, #632
 425 0028 FFF7FEFF 		bl	chThdCreateStatic
 426              	.LVL33:
 427              		.loc 1 94 0
 428 002c 039A     		ldr	r2, [sp, #12]
 429 002e 2368     		ldr	r3, [r4]
 430 0030 9A42     		cmp	r2, r3
 431 0032 01D1     		bne	.L27
 432 0034 05B0     		add	sp, sp, #20
 433              		.cfi_remember_state
 434              		.cfi_def_cfa_offset 12
 435              		@ sp needed
 436 0036 30BD     		pop	{r4, r5, pc}
 437              	.L27:
 438              		.cfi_restore_state
 439 0038 FFF7FEFF 		bl	__stack_chk_fail
 440              	.LVL34:
 441              	.L29:
 442              		.align	2
 443              	.L28:
 444 003c 00000000 		.word	__stack_chk_guard
 445 0040 00000000 		.word	ProcessImage
 446 0044 00000000 		.word	.LANCHOR4
 447 0048 00000000 		.word	CaptureImage
 448 004c 00000000 		.word	.LANCHOR5
 449              		.cfi_endproc
 450              	.LFE260:
 451              		.size	process_image_start, .-process_image_start
 452              		.section	.bss.waCaptureImage,"aw",%nobits
 453              		.align	3
 454              		.set	.LANCHOR5,. + 0
 455              		.type	waCaptureImage, %object
 456              		.size	waCaptureImage, 632
ARM GAS  /var/folders/gd/b85s80v10ws684278k5gqzcr0000gn/T//ccVs91sC.s 			page 9


 457              	waCaptureImage:
 458 0000 00000000 		.space	632
 458      00000000 
 458      00000000 
 458      00000000 
 458      00000000 
 459              		.section	.bss.waProcessImage,"aw",%nobits
 460              		.align	3
 461              		.set	.LANCHOR4,. + 0
 462              		.type	waProcessImage, %object
 463              		.size	waProcessImage, 1400
 464              	waProcessImage:
 465 0000 00000000 		.space	1400
 465      00000000 
 465      00000000 
 465      00000000 
 465      00000000 
 466              		.section	.data.image_ready_sem,"aw",%progbits
 467              		.align	2
 468              		.set	.LANCHOR1,. + 0
 469              		.type	image_ready_sem, %object
 470              		.size	image_ready_sem, 12
 471              	image_ready_sem:
 472 0000 00000000 		.word	image_ready_sem
 473 0004 00000000 		.word	image_ready_sem
 474 0008 00000000 		.word	0
 475              		.section	.rodata.__FUNCTION__.11329,"a",%progbits
 476              		.align	2
 477              		.set	.LANCHOR2,. + 0
 478              		.type	__FUNCTION__.11329, %object
 479              		.size	__FUNCTION__.11329, 13
 480              	__FUNCTION__.11329:
 481 0000 43617074 		.ascii	"CaptureImage\000"
 481      75726549 
 481      6D616765 
 481      00
 482              		.section	.rodata.__FUNCTION__.11335,"a",%progbits
 483              		.align	2
 484              		.set	.LANCHOR0,. + 0
 485              		.type	__FUNCTION__.11335, %object
 486              		.size	__FUNCTION__.11335, 13
 487              	__FUNCTION__.11335:
 488 0000 50726F63 		.ascii	"ProcessImage\000"
 488      65737349 
 488      6D616765 
 488      00
 489              		.section	.rodata.__func__.7153,"a",%progbits
 490              		.align	2
 491              		.set	.LANCHOR3,. + 0
 492              		.type	__func__.7153, %object
 493              		.size	__func__.7153, 12
 494              	__func__.7153:
 495 0000 63685379 		.ascii	"chSysUnlock\000"
 495      73556E6C 
 495      6F636B00 
 496              		.text
 497              	.Letext0:
ARM GAS  /var/folders/gd/b85s80v10ws684278k5gqzcr0000gn/T//ccVs91sC.s 			page 10


 498              		.file 6 "/Applications/Eclipse_e-puck2.app/Contents/Eclipse_e-puck2/Tools/gcc-arm-none-eabi-7-2017
 499              		.file 7 "/Applications/Eclipse_e-puck2.app/Contents/Eclipse_e-puck2/Tools/gcc-arm-none-eabi-7-2017
 500              		.file 8 "/Applications/Eclipse_e-puck2.app/Contents/Eclipse_e-puck2/Tools/gcc-arm-none-eabi-7-2017
 501              		.file 9 "../../lib/e-puck2_main-processor/ChibiOS//os/rt/ports/ARMCMx/compilers/GCC/chtypes.h"
 502              		.file 10 "../../lib/e-puck2_main-processor/ChibiOS//os/rt/include/chsystypes.h"
 503              		.file 11 "../../lib/e-puck2_main-processor/ChibiOS//os/rt/include/chschd.h"
 504              		.file 12 "../../lib/e-puck2_main-processor/ChibiOS//os/ext/CMSIS/include/core_cm4.h"
 505              		.file 13 "../../lib/e-puck2_main-processor/ChibiOS//os/ext/CMSIS/ST/system_stm32f4xx.h"
 506              		.file 14 "../../lib/e-puck2_main-processor/ChibiOS//os/ext/CMSIS/ST/stm32f407xx.h"
 507              		.file 15 "../../lib/e-puck2_main-processor/ChibiOS//os/rt/ports/ARMCMx/chcore.h"
 508              		.file 16 "../../lib/e-puck2_main-processor/ChibiOS//os/rt/ports/ARMCMx/chcore_v7m.h"
 509              		.file 17 "../../lib/e-puck2_main-processor/ChibiOS//os/rt/include/chdebug.h"
 510              		.file 18 "../../lib/e-puck2_main-processor/ChibiOS//os/rt/include/chtm.h"
 511              		.file 19 "../../lib/e-puck2_main-processor/ChibiOS//os/rt/include/chstats.h"
 512              		.file 20 "../../lib/e-puck2_main-processor/ChibiOS//os/rt/include/chsem.h"
 513              		.file 21 "../../lib/e-puck2_main-processor/ChibiOS//os/rt/include/chmtx.h"
 514              		.file 22 "../../lib/e-puck2_main-processor/ChibiOS//os/rt/include/chevents.h"
 515              		.file 23 "../../lib/e-puck2_main-processor/ChibiOS//os/rt/include/chqueues.h"
 516              		.file 24 "../../lib/e-puck2_main-processor/ChibiOS//os/hal/ports/STM32/STM32F4xx/stm32_dma.h"
 517              		.file 25 "../../lib/e-puck2_main-processor/ChibiOS//os/hal/include/hal_ioblock.h"
 518              		.file 26 "../../lib/e-puck2_main-processor/ChibiOS//os/hal/ports/STM32/LLD/GPIOv2/pal_lld.h"
 519              		.file 27 "../../lib/e-puck2_main-processor/ChibiOS//os/hal/include/adc.h"
 520              		.file 28 "../../lib/e-puck2_main-processor/ChibiOS//os/hal/ports/STM32/STM32F4xx/adc_lld.h"
 521              		.file 29 "../../lib/e-puck2_main-processor/ChibiOS//os/hal/include/can.h"
 522              		.file 30 "../../lib/e-puck2_main-processor/ChibiOS//os/hal/ports/STM32/LLD/can_lld.h"
 523              		.file 31 "../../lib/e-puck2_main-processor/ChibiOS//os/hal/include/dac.h"
 524              		.file 32 "../../lib/e-puck2_main-processor/ChibiOS//os/hal/ports/STM32/LLD/DACv1/dac_lld.h"
 525              		.file 33 "../../lib/e-puck2_main-processor/ChibiOS//os/hal/include/ext.h"
 526              		.file 34 "../../lib/e-puck2_main-processor/ChibiOS//os/hal/ports/STM32/LLD/ext_lld.h"
 527              		.file 35 "../../lib/e-puck2_main-processor/ChibiOS//os/hal/include/gpt.h"
 528              		.file 36 "../../lib/e-puck2_main-processor/ChibiOS//os/hal/ports/STM32/LLD/TIMv1/gpt_lld.h"
 529              		.file 37 "../../lib/e-puck2_main-processor/ChibiOS//os/hal/ports/STM32/LLD/TIMv1/stm32_tim.h"
 530              		.file 38 "../../lib/e-puck2_main-processor/ChibiOS//os/hal/include/i2c.h"
 531              		.file 39 "../../lib/e-puck2_main-processor/ChibiOS//os/hal/ports/STM32/LLD/I2Cv1/i2c_lld.h"
 532              		.file 40 "../../lib/e-puck2_main-processor/ChibiOS//os/hal/include/i2s.h"
 533              		.file 41 "../../lib/e-puck2_main-processor/ChibiOS//os/hal/ports/STM32/LLD/SPIv1/i2s_lld.h"
 534              		.file 42 "../../lib/e-puck2_main-processor/ChibiOS//os/hal/include/pwm.h"
 535              		.file 43 "../../lib/e-puck2_main-processor/ChibiOS//os/hal/ports/STM32/LLD/TIMv1/pwm_lld.h"
 536              		.file 44 "../../lib/e-puck2_main-processor/ChibiOS//os/hal/include/serial.h"
 537              		.file 45 "../../lib/e-puck2_main-processor/ChibiOS//os/hal/ports/STM32/LLD/USARTv1/serial_lld.h"
 538              		.file 46 "../../lib/e-puck2_main-processor/ChibiOS//os/hal/include/sdc.h"
 539              		.file 47 "../../lib/e-puck2_main-processor/ChibiOS//os/hal/ports/STM32/LLD/sdc_lld.h"
 540              		.file 48 "../../lib/e-puck2_main-processor/ChibiOS//os/hal/include/spi.h"
 541              		.file 49 "../../lib/e-puck2_main-processor/ChibiOS//os/hal/ports/STM32/LLD/SPIv1/spi_lld.h"
 542              		.file 50 "../../lib/e-puck2_main-processor/ChibiOS//os/hal/include/usb.h"
 543              		.file 51 "../../lib/e-puck2_main-processor/ChibiOS//os/hal/ports/STM32/LLD/OTGv1/usb_lld.h"
 544              		.file 52 "../../lib/e-puck2_main-processor/ChibiOS//os/hal/ports/STM32/LLD/OTGv1/stm32_otg.h"
 545              		.file 53 "../../lib/e-puck2_main-processor/ChibiOS//os/hal/include/serial_usb.h"
 546              		.file 54 "../../lib/e-puck2_main-processor/src/usbcfg.h"
 547              		.file 55 "../../lib/e-puck2_main-processor/ChibiOS_ext/os/hal/include/../ports/STM32/STM32F4xx/dcm
 548              		.file 56 "../../lib/e-puck2_main-processor/src/camera/po8030.h"
 549              		.file 57 "../../lib/e-puck2_main-processor/src/camera/dcmi_camera.h"
 550              		.file 58 "/Applications/Eclipse_e-puck2.app/Contents/Eclipse_e-puck2/Tools/gcc-arm-none-eabi-7-201
 551              		.file 59 "/Applications/Eclipse_e-puck2.app/Contents/Eclipse_e-puck2/Tools/gcc-arm-none-eabi-7-201
 552              		.file 60 "/Applications/Eclipse_e-puck2.app/Contents/Eclipse_e-puck2/Tools/gcc-arm-none-eabi-7-201
 553              		.file 61 "../../lib/e-puck2_main-processor/src/msgbus/messagebus.h"
 554              		.file 62 "/Applications/Eclipse_e-puck2.app/Contents/Eclipse_e-puck2/Tools/gcc-arm-none-eabi-7-201
ARM GAS  /var/folders/gd/b85s80v10ws684278k5gqzcr0000gn/T//ccVs91sC.s 			page 11


 555              		.file 63 "/Applications/Eclipse_e-puck2.app/Contents/Eclipse_e-puck2/Tools/gcc-arm-none-eabi-7-201
 556              		.file 64 "../../lib/e-puck2_main-processor/src/parameter/parameter.h"
 557              		.file 65 "./main.h"
 558              		.file 66 "../../lib/e-puck2_main-processor/ChibiOS//os/rt/include/chthreads.h"
 559              		.file 67 "<built-in>"