ARM GAS  /var/folders/gd/b85s80v10ws684278k5gqzcr0000gn/T//ccUcRhrF.s 			page 1


   1              		.cpu cortex-m4
   2              		.eabi_attribute 27, 1
   3              		.eabi_attribute 28, 1
   4              		.eabi_attribute 20, 1
   5              		.eabi_attribute 21, 1
   6              		.eabi_attribute 23, 3
   7              		.eabi_attribute 24, 1
   8              		.eabi_attribute 25, 1
   9              		.eabi_attribute 26, 1
  10              		.eabi_attribute 30, 2
  11              		.eabi_attribute 34, 1
  12              		.eabi_attribute 18, 4
  13              		.file	"audio_processing.c"
  14              		.text
  15              	.Ltext0:
  16              		.cfi_sections	.debug_frame
  17              		.section	.text.chprintf.constprop.0,"ax",%progbits
  18              		.align	1
  19              		.p2align 4,,15
  20              		.syntax unified
  21              		.thumb
  22              		.thumb_func
  23              		.fpu fpv4-sp-d16
  24              		.type	chprintf.constprop.0, %function
  25              	chprintf.constprop.0:
  26              	.LFB295:
  27              		.file 1 "../../lib/e-puck2_main-processor/ChibiOS//os/hal/lib/streams/chprintf.h"
  28              		.loc 1 69 0
  29              		.cfi_startproc
  30              		@ args = 4, pretend = 12, frame = 8
  31              		@ frame_needed = 0, uses_anonymous_args = 1
  32              	.LVL0:
  33 0000 0EB4     		push	{r1, r2, r3}
  34              		.cfi_def_cfa_offset 12
  35              		.cfi_offset 1, -12
  36              		.cfi_offset 2, -8
  37              		.cfi_offset 3, -4
  38 0002 10B5     		push	{r4, lr}
  39              		.cfi_def_cfa_offset 20
  40              		.cfi_offset 4, -20
  41              		.cfi_offset 14, -16
  42 0004 83B0     		sub	sp, sp, #12
  43              		.cfi_def_cfa_offset 32
  44              		.loc 1 69 0
  45 0006 05AA     		add	r2, sp, #20
  46 0008 094C     		ldr	r4, .L6
  47 000a 52F8041B 		ldr	r1, [r2], #4
  48 000e 2368     		ldr	r3, [r4]
  49              		.loc 1 74 0
  50 0010 0848     		ldr	r0, .L6+4
  51              	.LVL1:
  52              		.loc 1 73 0
  53 0012 0092     		str	r2, [sp]
  54              		.loc 1 69 0
  55 0014 0193     		str	r3, [sp, #4]
  56              	.LVL2:
  57              		.loc 1 74 0
ARM GAS  /var/folders/gd/b85s80v10ws684278k5gqzcr0000gn/T//ccUcRhrF.s 			page 2


  58 0016 FFF7FEFF 		bl	chvprintf
  59              	.LVL3:
  60              		.loc 1 78 0
  61 001a 019A     		ldr	r2, [sp, #4]
  62 001c 2368     		ldr	r3, [r4]
  63 001e 9A42     		cmp	r2, r3
  64 0020 04D1     		bne	.L5
  65 0022 03B0     		add	sp, sp, #12
  66              		.cfi_remember_state
  67              		.cfi_def_cfa_offset 20
  68              		@ sp needed
  69 0024 BDE81040 		pop	{r4, lr}
  70              		.cfi_restore 14
  71              		.cfi_restore 4
  72              		.cfi_def_cfa_offset 12
  73 0028 03B0     		add	sp, sp, #12
  74              		.cfi_restore 3
  75              		.cfi_restore 2
  76              		.cfi_restore 1
  77              		.cfi_def_cfa_offset 0
  78 002a 7047     		bx	lr
  79              	.L5:
  80              		.cfi_restore_state
  81 002c FFF7FEFF 		bl	__stack_chk_fail
  82              	.LVL4:
  83              	.L7:
  84              		.align	2
  85              	.L6:
  86 0030 00000000 		.word	__stack_chk_guard
  87 0034 00000000 		.word	SDU1
  88              		.cfi_endproc
  89              	.LFE295:
  90              		.size	chprintf.constprop.0, .-chprintf.constprop.0
  91              		.section	.text.sound_remote,"ax",%progbits
  92              		.align	1
  93              		.p2align 4,,15
  94              		.global	sound_remote
  95              		.syntax unified
  96              		.thumb
  97              		.thumb_func
  98              		.fpu fpv4-sp-d16
  99              		.type	sound_remote, %function
 100              	sound_remote:
 101              	.LFB290:
 102              		.file 2 "audio_processing.c"
 103              		.loc 2 44 0
 104              		.cfi_startproc
 105              		@ args = 0, pretend = 0, frame = 8
 106              		@ frame_needed = 0, uses_anonymous_args = 0
 107              	.LVL5:
 108 0000 30B5     		push	{r4, r5, lr}
 109              		.cfi_def_cfa_offset 12
 110              		.cfi_offset 4, -12
 111              		.cfi_offset 5, -8
 112              		.cfi_offset 14, -4
 113 0002 1B4D     		ldr	r5, .L22
 114 0004 83B0     		sub	sp, sp, #12
ARM GAS  /var/folders/gd/b85s80v10ws684278k5gqzcr0000gn/T//ccUcRhrF.s 			page 3


 115              		.cfi_def_cfa_offset 24
 116              		.loc 2 44 0
 117 0006 2B68     		ldr	r3, [r5]
 118 0008 0193     		str	r3, [sp, #4]
 119              	.LVL6:
 120 000a 0023     		movs	r3, #0
 121 000c 0146     		mov	r1, r0
 122              		.loc 2 45 0
 123 000e 1A46     		mov	r2, r3
 124              	.LVL7:
 125              	.L11:
 126              	.LBB30:
 127              		.loc 2 48 0
 128 0010 00EB8204 		add	r4, r0, r2, lsl #2
 129 0014 D4ED007A 		vldr.32	s15, [r4]
 130 0018 B1EC017A 		vldmia.32	r1!, {s14}
 131 001c B4EE677A 		vcmp.f32	s14, s15
 132 0020 F1EE10FA 		vmrs	APSR_nzcv, FPSCR
 133 0024 9CB2     		uxth	r4, r3
 134              	.LVL8:
 135 0026 03F10103 		add	r3, r3, #1
 136 002a C8BF     		it	gt
 137 002c 2246     		movgt	r2, r4
 138              	.LVL9:
 139              		.loc 2 47 0
 140 002e B3F5806F 		cmp	r3, #1024
 141 0032 EDD1     		bne	.L11
 142              	.LBE30:
 143              		.loc 2 53 0
 144 0034 B2F5C87F 		cmp	r2, #400
 145 0038 0DD8     		bhi	.L21
 146              		.loc 2 58 0
 147 003a 0020     		movs	r0, #0
 148              	.LVL10:
 149 003c FFF7FEFF 		bl	left_motor_set_speed
 150              	.LVL11:
 151              		.loc 2 59 0
 152 0040 019A     		ldr	r2, [sp, #4]
 153 0042 2B68     		ldr	r3, [r5]
 154 0044 9A42     		cmp	r2, r3
 155 0046 08BF     		it	eq
 156 0048 0020     		moveq	r0, #0
 157 004a 0FD1     		bne	.L20
 158              	.L19:
 159              		.loc 2 62 0
 160 004c 03B0     		add	sp, sp, #12
 161              		.cfi_remember_state
 162              		.cfi_def_cfa_offset 12
 163              		@ sp needed
 164 004e BDE83040 		pop	{r4, r5, lr}
 165              		.cfi_restore 14
 166              		.cfi_restore 5
 167              		.cfi_restore 4
 168              		.cfi_def_cfa_offset 0
 169              		.loc 2 59 0
 170 0052 FFF7FEBF 		b	right_motor_set_speed
 171              	.LVL12:
ARM GAS  /var/folders/gd/b85s80v10ws684278k5gqzcr0000gn/T//ccUcRhrF.s 			page 4


 172              	.L21:
 173              		.cfi_restore_state
 174              		.loc 2 54 0
 175 0056 4FF41670 		mov	r0, #600
 176              	.LVL13:
 177 005a FFF7FEFF 		bl	left_motor_set_speed
 178              	.LVL14:
 179              		.loc 2 55 0
 180 005e 019A     		ldr	r2, [sp, #4]
 181 0060 2B68     		ldr	r3, [r5]
 182 0062 9A42     		cmp	r2, r3
 183 0064 08BF     		it	eq
 184 0066 4FF41670 		moveq	r0, #600
 185 006a EFD0     		beq	.L19
 186              	.L20:
 187              		.loc 2 59 0
 188 006c FFF7FEFF 		bl	__stack_chk_fail
 189              	.LVL15:
 190              	.L23:
 191              		.align	2
 192              	.L22:
 193 0070 00000000 		.word	__stack_chk_guard
 194              		.cfi_endproc
 195              	.LFE290:
 196              		.size	sound_remote, .-sound_remote
 197              		.global	__aeabi_f2d
 198              		.section	.text.processAudioData,"ax",%progbits
 199              		.align	1
 200              		.p2align 4,,15
 201              		.global	processAudioData
 202              		.syntax unified
 203              		.thumb
 204              		.thumb_func
 205              		.fpu fpv4-sp-d16
 206              		.type	processAudioData, %function
 207              	processAudioData:
 208              	.LFB291:
 209              		.loc 2 64 0
 210              		.cfi_startproc
 211              		@ args = 0, pretend = 0, frame = 8
 212              		@ frame_needed = 0, uses_anonymous_args = 0
 213              	.LVL16:
 214 0000 2DE9F04F 		push	{r4, r5, r6, r7, r8, r9, r10, fp, lr}
 215              		.cfi_def_cfa_offset 36
 216              		.cfi_offset 4, -36
 217              		.cfi_offset 5, -32
 218              		.cfi_offset 6, -28
 219              		.cfi_offset 7, -24
 220              		.cfi_offset 8, -20
 221              		.cfi_offset 9, -16
 222              		.cfi_offset 10, -12
 223              		.cfi_offset 11, -8
 224              		.cfi_offset 14, -4
 225 0004 5C4D     		ldr	r5, .L41
 226 0006 5D4E     		ldr	r6, .L41+4
 227 0008 2A88     		ldrh	r2, [r5]
 228 000a 3368     		ldr	r3, [r6]
ARM GAS  /var/folders/gd/b85s80v10ws684278k5gqzcr0000gn/T//ccUcRhrF.s 			page 5


 229 000c DFF88C81 		ldr	r8, .L41+36
 230 0010 DFF88CE1 		ldr	lr, .L41+40
 231 0014 DFF88CC1 		ldr	ip, .L41+44
 232 0018 594F     		ldr	r7, .L41+8
 233 001a 85B0     		sub	sp, sp, #20
 234              		.cfi_def_cfa_offset 56
 235 001c 02F1A009 		add	r9, r2, #160
 236              	.LBB47:
 237              		.loc 2 68 0
 238 0020 0024     		movs	r4, #0
 239              	.LBE47:
 240              		.loc 2 64 0
 241 0022 0393     		str	r3, [sp, #12]
 242              	.LVL17:
 243 0024 1FFA89F9 		uxth	r9, r9
 244 0028 04E0     		b	.L31
 245              	.LVL18:
 246              	.L25:
 247              	.LBB70:
 248              		.loc 2 66 0 discriminator 2
 249 002a 4A45     		cmp	r2, r9
 250 002c 00F10800 		add	r0, r0, #8
 251 0030 00F0A080 		beq	.L36
 252              	.LVL19:
 253              	.L31:
 254              		.loc 2 68 0
 255 0034 B0F90230 		ldrsh	r3, [r0, #2]
 256 0038 07EE903A 		vmov	s15, r3	@ int
 257 003c D300     		lsls	r3, r2, #3
 258 003e 1946     		mov	r1, r3
 259 0040 0433     		adds	r3, r3, #4
 260 0042 08EB030A 		add	r10, r8, r3
 261 0046 F8EEE77A 		vcvt.f32.s32	s15, s15
 262 004a 08EB010B 		add	fp, r8, r1
 263 004e CBED007A 		vstr.32	s15, [fp]
 264 0052 CAF80040 		str	r4, [r10]	@ float
 265              		.loc 2 69 0
 266 0056 B0F900A0 		ldrsh	r10, [r0]
 267 005a 07EE90AA 		vmov	s15, r10	@ int
 268 005e 0EEB030A 		add	r10, lr, r3
 269 0062 F8EEE77A 		vcvt.f32.s32	s15, s15
 270 0066 0EEB010B 		add	fp, lr, r1
 271 006a CBED007A 		vstr.32	s15, [fp]
 272 006e CAF80040 		str	r4, [r10]	@ float
 273              		.loc 2 70 0
 274 0072 B0F904A0 		ldrsh	r10, [r0, #4]
 275 0076 07EE90AA 		vmov	s15, r10	@ int
 276 007a 0CEB030A 		add	r10, ip, r3
 277 007e F8EEE77A 		vcvt.f32.s32	s15, s15
 278 0082 0CEB010B 		add	fp, ip, r1
 279 0086 CBED007A 		vstr.32	s15, [fp]
 280 008a CAF80040 		str	r4, [r10]	@ float
 281              		.loc 2 71 0
 282 008e B0F906A0 		ldrsh	r10, [r0, #6]
 283 0092 07EE90AA 		vmov	s15, r10	@ int
 284              		.loc 2 72 0
 285 0096 0132     		adds	r2, r2, #1
ARM GAS  /var/folders/gd/b85s80v10ws684278k5gqzcr0000gn/T//ccUcRhrF.s 			page 6


 286              		.loc 2 71 0
 287 0098 F8EEE77A 		vcvt.f32.s32	s15, s15
 288              		.loc 2 72 0
 289 009c 92B2     		uxth	r2, r2
 290              		.loc 2 71 0
 291 009e 3B44     		add	r3, r3, r7
 292 00a0 3944     		add	r1, r1, r7
 293              		.loc 2 74 0
 294 00a2 B2F5806F 		cmp	r2, #1024
 295              		.loc 2 71 0
 296 00a6 C1ED007A 		vstr.32	s15, [r1]
 297 00aa 1C60     		str	r4, [r3]	@ float
 298              		.loc 2 74 0
 299 00ac BDD3     		bcc	.L25
 300              		.loc 2 75 0
 301 00ae DFF8F8A0 		ldr	r10, .L41+48
 302 00b2 2A80     		strh	r2, [r5]	@ movhi
 303 00b4 BAF80030 		ldrh	r3, [r10]
 304 00b8 0133     		adds	r3, r3, #1
 305 00ba 9BB2     		uxth	r3, r3
 306              		.loc 2 77 0
 307 00bc 632B     		cmp	r3, #99
 308              		.loc 2 75 0
 309 00be AAF80030 		strh	r3, [r10]	@ movhi
 310              		.loc 2 77 0
 311 00c2 08D8     		bhi	.L37
 312              	.L26:
 313              		.loc 2 95 0
 314 00c4 0023     		movs	r3, #0
 315 00c6 2B80     		strh	r3, [r5]	@ movhi
 316              	.LVL20:
 317              	.L24:
 318              	.LBE70:
 319              		.loc 2 99 0
 320 00c8 039A     		ldr	r2, [sp, #12]
 321 00ca 3368     		ldr	r3, [r6]
 322 00cc 9A42     		cmp	r2, r3
 323 00ce 4FD1     		bne	.L38
 324 00d0 05B0     		add	sp, sp, #20
 325              		.cfi_remember_state
 326              		.cfi_def_cfa_offset 36
 327              		@ sp needed
 328 00d2 BDE8F08F 		pop	{r4, r5, r6, r7, r8, r9, r10, fp, pc}
 329              	.LVL21:
 330              	.L37:
 331              		.cfi_restore_state
 332 00d6 2B4F     		ldr	r7, .L41+12
 333              	.LBB71:
 334              		.loc 2 79 0
 335 00d8 2949     		ldr	r1, .L41+8
 336              	.LBB48:
 337              		.loc 2 84 0
 338 00da DFF8D090 		ldr	r9, .L41+52
 339 00de DFF8AC80 		ldr	r8, .L41+20
 340              	.LBE48:
 341              		.loc 2 79 0
 342 00e2 4FF48060 		mov	r0, #1024
ARM GAS  /var/folders/gd/b85s80v10ws684278k5gqzcr0000gn/T//ccUcRhrF.s 			page 7


 343 00e6 FFF7FEFF 		bl	doFFT_optimized
 344              	.LVL22:
 345              		.loc 2 81 0
 346 00ea 4FF48062 		mov	r2, #1024
 347 00ee 3946     		mov	r1, r7
 348 00f0 2348     		ldr	r0, .L41+8
 349 00f2 FFF7FEFF 		bl	arm_cmplx_mag_f32
 350              	.LVL23:
 351 00f6 0024     		movs	r4, #0
 352              	.LVL24:
 353              	.L27:
 354              	.LBB49:
 355              		.loc 2 84 0 discriminator 3
 356 00f8 57F8040B 		ldr	r0, [r7], #4	@ float
 357 00fc FFF7FEFF 		bl	__aeabi_f2d
 358              	.LVL25:
 359 0100 2246     		mov	r2, r4
 360 0102 CDE90001 		strd	r0, [sp]
 361 0106 0134     		adds	r4, r4, #1
 362              	.LVL26:
 363 0108 4946     		mov	r1, r9
 364 010a 4046     		mov	r0, r8
 365 010c FFF7FEFF 		bl	chprintf.constprop.0
 366              	.LVL27:
 367              		.loc 2 83 0 discriminator 3
 368 0110 B4F5007F 		cmp	r4, #512
 369 0114 F0D1     		bne	.L27
 370              	.LBE49:
 371              		.loc 2 86 0
 372 0116 1C49     		ldr	r1, .L41+16
 373 0118 1C48     		ldr	r0, .L41+20
 374 011a FFF7FEFF 		bl	chprintf.constprop.0
 375              	.LVL28:
 376              	.LBB50:
 377              	.LBB51:
 378              	.LBB52:
 379              	.LBB53:
 380              	.LBB54:
 381              	.LBB55:
 382              	.LBB56:
 383              		.file 3 "../../lib/e-puck2_main-processor/ChibiOS//os/ext/CMSIS/include/core_cmFunc.h"
 384              		.loc 3 546 0
 385 011e 2023     		movs	r3, #32
 386              		.syntax unified
 387              	@ 546 "../../lib/e-puck2_main-processor/ChibiOS//os/ext/CMSIS/include/core_cmFunc.h" 1
 388 0120 83F31188 		MSR basepri, r3
 389              	@ 0 "" 2
 390              	.LVL29:
 391              		.thumb
 392              		.syntax unified
 393              	.LBE56:
 394              	.LBE55:
 395              	.LBE54:
 396              		.file 4 "../../lib/e-puck2_main-processor/ChibiOS//os/rt/include/chsys.h"
 397              		.loc 4 349 0
 398 0124 FFF7FEFF 		bl	_stats_start_measure_crit_thd
 399              	.LVL30:
ARM GAS  /var/folders/gd/b85s80v10ws684278k5gqzcr0000gn/T//ccUcRhrF.s 			page 8


 400              		.loc 4 350 0
 401 0128 FFF7FEFF 		bl	_dbg_check_lock
 402              	.LVL31:
 403              	.LBE53:
 404              	.LBE52:
 405              	.LBB57:
 406              	.LBB58:
 407              		.file 5 "../../lib/e-puck2_main-processor/ChibiOS//os/rt/include/chbsem.h"
 408              		.loc 5 268 0
 409 012c FFF7FEFF 		bl	chDbgCheckClassI
 410              	.LVL32:
 411              		.loc 5 270 0
 412 0130 1748     		ldr	r0, .L41+24
 413 0132 8368     		ldr	r3, [r0, #8]
 414 0134 002B     		cmp	r3, #0
 415 0136 18DD     		ble	.L39
 416              	.L28:
 417              	.LVL33:
 418              	.LBE58:
 419              	.LBE57:
 420              		.loc 5 286 0
 421 0138 FFF7FEFF 		bl	chSchRescheduleS
 422              	.LVL34:
 423              	.LBB60:
 424              	.LBB61:
 425              		.loc 4 360 0
 426 013c FFF7FEFF 		bl	_dbg_check_unlock
 427              	.LVL35:
 428              		.loc 4 361 0
 429 0140 FFF7FEFF 		bl	_stats_stop_measure_crit_thd
 430              	.LVL36:
 431              		.loc 4 367 0
 432 0144 134B     		ldr	r3, .L41+28
 433 0146 1A68     		ldr	r2, [r3]
 434 0148 9A42     		cmp	r2, r3
 435 014a 04D0     		beq	.L29
 436 014c 9969     		ldr	r1, [r3, #24]
 437 014e 9368     		ldr	r3, [r2, #8]
 438 0150 8A68     		ldr	r2, [r1, #8]
 439 0152 9A42     		cmp	r2, r3
 440 0154 05D3     		bcc	.L40
 441              	.L29:
 442              	.LVL37:
 443              	.LBB62:
 444              	.LBB63:
 445              	.LBB64:
 446              		.loc 3 546 0
 447 0156 0023     		movs	r3, #0
 448              		.syntax unified
 449              	@ 546 "../../lib/e-puck2_main-processor/ChibiOS//os/ext/CMSIS/include/core_cmFunc.h" 1
 450 0158 83F31188 		MSR basepri, r3
 451              	@ 0 "" 2
 452              	.LVL38:
 453              		.thumb
 454              		.syntax unified
 455              	.LBE64:
 456              	.LBE63:
ARM GAS  /var/folders/gd/b85s80v10ws684278k5gqzcr0000gn/T//ccUcRhrF.s 			page 9


 457              	.LBE62:
 458              	.LBE61:
 459              	.LBE60:
 460              	.LBE51:
 461              	.LBE50:
 462              		.loc 2 89 0
 463 015c AAF80030 		strh	r3, [r10]	@ movhi
 464 0160 B0E7     		b	.L26
 465              	.LVL39:
 466              	.L40:
 467              	.LBB69:
 468              	.LBB68:
 469              	.LBB66:
 470              	.LBB65:
 471              		.loc 4 367 0
 472 0162 0D48     		ldr	r0, .L41+32
 473 0164 FFF7FEFF 		bl	chSysHalt
 474              	.LVL40:
 475 0168 F5E7     		b	.L29
 476              	.LVL41:
 477              	.L39:
 478              	.LBE65:
 479              	.LBE66:
 480              	.LBB67:
 481              	.LBB59:
 482              		.loc 5 271 0
 483 016a FFF7FEFF 		bl	chSemSignalI
 484              	.LVL42:
 485 016e E3E7     		b	.L28
 486              	.LVL43:
 487              	.L38:
 488              	.LBE59:
 489              	.LBE67:
 490              	.LBE68:
 491              	.LBE69:
 492              	.LBE71:
 493              		.loc 2 99 0
 494 0170 FFF7FEFF 		bl	__stack_chk_fail
 495              	.LVL44:
 496              	.L36:
 497 0174 2A80     		strh	r2, [r5]	@ movhi
 498 0176 A7E7     		b	.L24
 499              	.L42:
 500              		.align	2
 501              	.L41:
 502 0178 00000000 		.word	.LANCHOR0
 503 017c 00000000 		.word	__stack_chk_guard
 504 0180 00000000 		.word	micFront_cmplx_input
 505 0184 00000000 		.word	micFront_output
 506 0188 0C000000 		.word	.LC1
 507 018c 00000000 		.word	SDU1
 508 0190 00000000 		.word	.LANCHOR2
 509 0194 00000000 		.word	ch
 510 0198 00000000 		.word	.LANCHOR3
 511 019c 00000000 		.word	micLeft_cmplx_input
 512 01a0 00000000 		.word	micRight_cmplx_input
 513 01a4 00000000 		.word	micBack_cmplx_input
ARM GAS  /var/folders/gd/b85s80v10ws684278k5gqzcr0000gn/T//ccUcRhrF.s 			page 10


 514 01a8 00000000 		.word	.LANCHOR1
 515 01ac 00000000 		.word	.LC0
 516              		.cfi_endproc
 517              	.LFE291:
 518              		.size	processAudioData, .-processAudioData
 519              		.section	.text.wait_send_to_computer,"ax",%progbits
 520              		.align	1
 521              		.p2align 4,,15
 522              		.global	wait_send_to_computer
 523              		.syntax unified
 524              		.thumb
 525              		.thumb_func
 526              		.fpu fpv4-sp-d16
 527              		.type	wait_send_to_computer, %function
 528              	wait_send_to_computer:
 529              	.LFB292:
 530              		.loc 2 102 0
 531              		.cfi_startproc
 532              		@ args = 0, pretend = 0, frame = 8
 533              		@ frame_needed = 0, uses_anonymous_args = 0
 534 0000 00B5     		push	{lr}
 535              		.cfi_def_cfa_offset 4
 536              		.cfi_offset 14, -4
 537 0002 084B     		ldr	r3, .L48
 538 0004 83B0     		sub	sp, sp, #12
 539              		.cfi_def_cfa_offset 16
 540              		.loc 2 102 0
 541 0006 1A68     		ldr	r2, [r3]
 542 0008 0192     		str	r2, [sp, #4]
 543              	.LVL45:
 544              	.LBB72:
 545              	.LBB73:
 546              		.loc 5 143 0
 547 000a 019A     		ldr	r2, [sp, #4]
 548 000c 1B68     		ldr	r3, [r3]
 549 000e 9A42     		cmp	r2, r3
 550 0010 05D1     		bne	.L47
 551 0012 0548     		ldr	r0, .L48+4
 552              	.LBE73:
 553              	.LBE72:
 554              		.loc 2 104 0
 555 0014 03B0     		add	sp, sp, #12
 556              		.cfi_remember_state
 557              		.cfi_def_cfa_offset 4
 558              		@ sp needed
 559 0016 5DF804EB 		ldr	lr, [sp], #4
 560              		.cfi_restore 14
 561              		.cfi_def_cfa_offset 0
 562              	.LBB75:
 563              	.LBB74:
 564              		.loc 5 143 0
 565 001a FFF7FEBF 		b	chSemWait
 566              	.LVL46:
 567              	.L47:
 568              		.cfi_restore_state
 569 001e FFF7FEFF 		bl	__stack_chk_fail
 570              	.LVL47:
ARM GAS  /var/folders/gd/b85s80v10ws684278k5gqzcr0000gn/T//ccUcRhrF.s 			page 11


 571              	.L49:
 572 0022 00BF     		.align	2
 573              	.L48:
 574 0024 00000000 		.word	__stack_chk_guard
 575 0028 00000000 		.word	.LANCHOR2
 576              	.LBE74:
 577              	.LBE75:
 578              		.cfi_endproc
 579              	.LFE292:
 580              		.size	wait_send_to_computer, .-wait_send_to_computer
 581              		.section	.text.get_audio_buffer_ptr,"ax",%progbits
 582              		.align	1
 583              		.p2align 4,,15
 584              		.global	get_audio_buffer_ptr
 585              		.syntax unified
 586              		.thumb
 587              		.thumb_func
 588              		.fpu fpv4-sp-d16
 589              		.type	get_audio_buffer_ptr, %function
 590              	get_audio_buffer_ptr:
 591              	.LFB293:
 592              		.loc 2 106 0
 593              		.cfi_startproc
 594              		@ args = 0, pretend = 0, frame = 8
 595              		@ frame_needed = 0, uses_anonymous_args = 0
 596              	.LVL48:
 597 0000 00B5     		push	{lr}
 598              		.cfi_def_cfa_offset 4
 599              		.cfi_offset 14, -4
 600 0002 164B     		ldr	r3, .L63
 601 0004 83B0     		sub	sp, sp, #12
 602              		.cfi_def_cfa_offset 16
 603              		.loc 2 106 0
 604 0006 1A68     		ldr	r2, [r3]
 605 0008 0192     		str	r2, [sp, #4]
 606              		.loc 2 107 0
 607 000a 88B1     		cbz	r0, .L53
 608              		.loc 2 110 0
 609 000c 0128     		cmp	r0, #1
 610 000e 17D0     		beq	.L54
 611              		.loc 2 113 0
 612 0010 0228     		cmp	r0, #2
 613 0012 19D0     		beq	.L55
 614              		.loc 2 116 0
 615 0014 0328     		cmp	r0, #3
 616 0016 15D0     		beq	.L56
 617              		.loc 2 119 0
 618 0018 0428     		cmp	r0, #4
 619 001a 17D0     		beq	.L57
 620              		.loc 2 122 0
 621 001c 0528     		cmp	r0, #5
 622 001e 17D0     		beq	.L58
 623              		.loc 2 125 0
 624 0020 0628     		cmp	r0, #6
 625 0022 17D0     		beq	.L59
 626              		.loc 2 132 0
 627 0024 0E4A     		ldr	r2, .L63+4
ARM GAS  /var/folders/gd/b85s80v10ws684278k5gqzcr0000gn/T//ccUcRhrF.s 			page 12


 628              		.loc 2 128 0
 629 0026 0728     		cmp	r0, #7
 630              		.loc 2 132 0
 631 0028 0CBF     		ite	eq
 632 002a 1046     		moveq	r0, r2
 633              	.LVL49:
 634 002c 0020     		movne	r0, #0
 635 002e 00E0     		b	.L50
 636              	.LVL50:
 637              	.L53:
 638              		.loc 2 108 0
 639 0030 0C48     		ldr	r0, .L63+8
 640              	.LVL51:
 641              	.L50:
 642              		.loc 2 134 0
 643 0032 019A     		ldr	r2, [sp, #4]
 644 0034 1B68     		ldr	r3, [r3]
 645 0036 9A42     		cmp	r2, r3
 646 0038 0ED1     		bne	.L62
 647 003a 03B0     		add	sp, sp, #12
 648              		.cfi_remember_state
 649              		.cfi_def_cfa_offset 4
 650              		@ sp needed
 651 003c 5DF804FB 		ldr	pc, [sp], #4
 652              	.LVL52:
 653              	.L54:
 654              		.cfi_restore_state
 655              		.loc 2 111 0
 656 0040 0948     		ldr	r0, .L63+12
 657              	.LVL53:
 658 0042 F6E7     		b	.L50
 659              	.LVL54:
 660              	.L56:
 661              		.loc 2 117 0
 662 0044 0948     		ldr	r0, .L63+16
 663              	.LVL55:
 664 0046 F4E7     		b	.L50
 665              	.LVL56:
 666              	.L55:
 667              		.loc 2 114 0
 668 0048 0948     		ldr	r0, .L63+20
 669              	.LVL57:
 670 004a F2E7     		b	.L50
 671              	.LVL58:
 672              	.L57:
 673              		.loc 2 120 0
 674 004c 0948     		ldr	r0, .L63+24
 675              	.LVL59:
 676 004e F0E7     		b	.L50
 677              	.LVL60:
 678              	.L58:
 679              		.loc 2 123 0
 680 0050 0948     		ldr	r0, .L63+28
 681              	.LVL61:
 682 0052 EEE7     		b	.L50
 683              	.LVL62:
 684              	.L59:
ARM GAS  /var/folders/gd/b85s80v10ws684278k5gqzcr0000gn/T//ccUcRhrF.s 			page 13


 685              		.loc 2 126 0
 686 0054 0948     		ldr	r0, .L63+32
 687              	.LVL63:
 688 0056 ECE7     		b	.L50
 689              	.L62:
 690              		.loc 2 134 0
 691 0058 FFF7FEFF 		bl	__stack_chk_fail
 692              	.LVL64:
 693              	.L64:
 694              		.align	2
 695              	.L63:
 696 005c 00000000 		.word	__stack_chk_guard
 697 0060 00000000 		.word	micBack_output
 698 0064 00000000 		.word	micLeft_cmplx_input
 699 0068 00000000 		.word	micRight_cmplx_input
 700 006c 00000000 		.word	micBack_cmplx_input
 701 0070 00000000 		.word	micFront_cmplx_input
 702 0074 00000000 		.word	micLeft_output
 703 0078 00000000 		.word	micRight_output
 704 007c 00000000 		.word	micFront_output
 705              		.cfi_endproc
 706              	.LFE293:
 707              		.size	get_audio_buffer_ptr, .-get_audio_buffer_ptr
 708              		.section	.bss.counter,"aw",%nobits
 709              		.align	1
 710              		.set	.LANCHOR0,. + 0
 711              		.type	counter, %object
 712              		.size	counter, 2
 713              	counter:
 714 0000 0000     		.space	2
 715              		.section	.bss.micBack_cmplx_input,"aw",%nobits
 716              		.align	2
 717              		.type	micBack_cmplx_input, %object
 718              		.size	micBack_cmplx_input, 8192
 719              	micBack_cmplx_input:
 720 0000 00000000 		.space	8192
 720      00000000 
 720      00000000 
 720      00000000 
 720      00000000 
 721              		.section	.bss.micBack_output,"aw",%nobits
 722              		.align	2
 723              		.type	micBack_output, %object
 724              		.size	micBack_output, 4096
 725              	micBack_output:
 726 0000 00000000 		.space	4096
 726      00000000 
 726      00000000 
 726      00000000 
 726      00000000 
 727              		.section	.bss.micFront_cmplx_input,"aw",%nobits
 728              		.align	2
 729              		.type	micFront_cmplx_input, %object
 730              		.size	micFront_cmplx_input, 8192
 731              	micFront_cmplx_input:
 732 0000 00000000 		.space	8192
 732      00000000 
ARM GAS  /var/folders/gd/b85s80v10ws684278k5gqzcr0000gn/T//ccUcRhrF.s 			page 14


 732      00000000 
 732      00000000 
 732      00000000 
 733              		.section	.bss.micFront_output,"aw",%nobits
 734              		.align	2
 735              		.type	micFront_output, %object
 736              		.size	micFront_output, 4096
 737              	micFront_output:
 738 0000 00000000 		.space	4096
 738      00000000 
 738      00000000 
 738      00000000 
 738      00000000 
 739              		.section	.bss.micLeft_cmplx_input,"aw",%nobits
 740              		.align	2
 741              		.type	micLeft_cmplx_input, %object
 742              		.size	micLeft_cmplx_input, 8192
 743              	micLeft_cmplx_input:
 744 0000 00000000 		.space	8192
 744      00000000 
 744      00000000 
 744      00000000 
 744      00000000 
 745              		.section	.bss.micLeft_output,"aw",%nobits
 746              		.align	2
 747              		.type	micLeft_output, %object
 748              		.size	micLeft_output, 4096
 749              	micLeft_output:
 750 0000 00000000 		.space	4096
 750      00000000 
 750      00000000 
 750      00000000 
 750      00000000 
 751              		.section	.bss.micRight_cmplx_input,"aw",%nobits
 752              		.align	2
 753              		.type	micRight_cmplx_input, %object
 754              		.size	micRight_cmplx_input, 8192
 755              	micRight_cmplx_input:
 756 0000 00000000 		.space	8192
 756      00000000 
 756      00000000 
 756      00000000 
 756      00000000 
 757              		.section	.bss.micRight_output,"aw",%nobits
 758              		.align	2
 759              		.type	micRight_output, %object
 760              		.size	micRight_output, 4096
 761              	micRight_output:
 762 0000 00000000 		.space	4096
 762      00000000 
 762      00000000 
 762      00000000 
 762      00000000 
 763              		.section	.bss.sent,"aw",%nobits
 764              		.align	1
 765              		.set	.LANCHOR1,. + 0
 766              		.type	sent, %object
ARM GAS  /var/folders/gd/b85s80v10ws684278k5gqzcr0000gn/T//ccUcRhrF.s 			page 15


 767              		.size	sent, 2
 768              	sent:
 769 0000 0000     		.space	2
 770              		.section	.data.sendToComputer_sem,"aw",%progbits
 771              		.align	2
 772              		.set	.LANCHOR2,. + 0
 773              		.type	sendToComputer_sem, %object
 774              		.size	sendToComputer_sem, 12
 775              	sendToComputer_sem:
 776 0000 00000000 		.word	sendToComputer_sem
 777 0004 00000000 		.word	sendToComputer_sem
 778 0008 00000000 		.word	0
 779              		.section	.rodata.__func__.7153,"a",%progbits
 780              		.align	2
 781              		.set	.LANCHOR3,. + 0
 782              		.type	__func__.7153, %object
 783              		.size	__func__.7153, 12
 784              	__func__.7153:
 785 0000 63685379 		.ascii	"chSysUnlock\000"
 785      73556E6C 
 785      6F636B00 
 786              		.section	.rodata.processAudioData.str1.4,"aMS",%progbits,1
 787              		.align	2
 788              	.LC0:
 789 0000 2564203A 		.ascii	"%d : %.2f\012\000"
 789      20252E32 
 789      660A00
 790 000b 00       		.space	1
 791              	.LC1:
 792 000c 2D2D2D2D 		.ascii	"---------------------------------\000"
 792      2D2D2D2D 
 792      2D2D2D2D 
 792      2D2D2D2D 
 792      2D2D2D2D 
 793              		.text
 794              	.Letext0:
 795              		.file 6 "/Applications/Eclipse_e-puck2.app/Contents/Eclipse_e-puck2/Tools/gcc-arm-none-eabi-7-2017
 796              		.file 7 "/Applications/Eclipse_e-puck2.app/Contents/Eclipse_e-puck2/Tools/gcc-arm-none-eabi-7-2017
 797              		.file 8 "/Applications/Eclipse_e-puck2.app/Contents/Eclipse_e-puck2/Tools/gcc-arm-none-eabi-7-2017
 798              		.file 9 "../../lib/e-puck2_main-processor/ChibiOS//os/rt/ports/ARMCMx/compilers/GCC/chtypes.h"
 799              		.file 10 "../../lib/e-puck2_main-processor/ChibiOS//os/rt/include/chsystypes.h"
 800              		.file 11 "../../lib/e-puck2_main-processor/ChibiOS//os/rt/include/chschd.h"
 801              		.file 12 "../../lib/e-puck2_main-processor/ChibiOS//os/ext/CMSIS/include/core_cm4.h"
 802              		.file 13 "../../lib/e-puck2_main-processor/ChibiOS//os/ext/CMSIS/ST/system_stm32f4xx.h"
 803              		.file 14 "../../lib/e-puck2_main-processor/ChibiOS//os/ext/CMSIS/ST/stm32f407xx.h"
 804              		.file 15 "../../lib/e-puck2_main-processor/ChibiOS//os/rt/ports/ARMCMx/chcore.h"
 805              		.file 16 "../../lib/e-puck2_main-processor/ChibiOS//os/rt/ports/ARMCMx/chcore_v7m.h"
 806              		.file 17 "../../lib/e-puck2_main-processor/ChibiOS//os/rt/include/chdebug.h"
 807              		.file 18 "../../lib/e-puck2_main-processor/ChibiOS//os/rt/include/chtm.h"
 808              		.file 19 "../../lib/e-puck2_main-processor/ChibiOS//os/rt/include/chstats.h"
 809              		.file 20 "../../lib/e-puck2_main-processor/ChibiOS//os/rt/include/chsem.h"
 810              		.file 21 "../../lib/e-puck2_main-processor/ChibiOS//os/rt/include/chmtx.h"
 811              		.file 22 "../../lib/e-puck2_main-processor/ChibiOS//os/rt/include/chregistry.h"
 812              		.file 23 "../../lib/e-puck2_main-processor/ChibiOS//os/rt/include/chevents.h"
 813              		.file 24 "../../lib/e-puck2_main-processor/ChibiOS//os/rt/include/chqueues.h"
 814              		.file 25 "../../lib/e-puck2_main-processor/ChibiOS//os/rt/include/chstreams.h"
 815              		.file 26 "../../lib/e-puck2_main-processor/ChibiOS//os/hal/ports/STM32/STM32F4xx/stm32_dma.h"
ARM GAS  /var/folders/gd/b85s80v10ws684278k5gqzcr0000gn/T//ccUcRhrF.s 			page 16


 816              		.file 27 "../../lib/e-puck2_main-processor/ChibiOS//os/hal/include/hal_ioblock.h"
 817              		.file 28 "../../lib/e-puck2_main-processor/ChibiOS//os/hal/ports/STM32/LLD/GPIOv2/pal_lld.h"
 818              		.file 29 "../../lib/e-puck2_main-processor/ChibiOS//os/hal/include/adc.h"
 819              		.file 30 "../../lib/e-puck2_main-processor/ChibiOS//os/hal/ports/STM32/STM32F4xx/adc_lld.h"
 820              		.file 31 "../../lib/e-puck2_main-processor/ChibiOS//os/hal/include/can.h"
 821              		.file 32 "../../lib/e-puck2_main-processor/ChibiOS//os/hal/ports/STM32/LLD/can_lld.h"
 822              		.file 33 "../../lib/e-puck2_main-processor/ChibiOS//os/hal/include/dac.h"
 823              		.file 34 "../../lib/e-puck2_main-processor/ChibiOS//os/hal/ports/STM32/LLD/DACv1/dac_lld.h"
 824              		.file 35 "../../lib/e-puck2_main-processor/ChibiOS//os/hal/include/ext.h"
 825              		.file 36 "../../lib/e-puck2_main-processor/ChibiOS//os/hal/ports/STM32/LLD/ext_lld.h"
 826              		.file 37 "../../lib/e-puck2_main-processor/ChibiOS//os/hal/include/gpt.h"
 827              		.file 38 "../../lib/e-puck2_main-processor/ChibiOS//os/hal/ports/STM32/LLD/TIMv1/gpt_lld.h"
 828              		.file 39 "../../lib/e-puck2_main-processor/ChibiOS//os/hal/ports/STM32/LLD/TIMv1/stm32_tim.h"
 829              		.file 40 "../../lib/e-puck2_main-processor/ChibiOS//os/hal/include/i2c.h"
 830              		.file 41 "../../lib/e-puck2_main-processor/ChibiOS//os/hal/ports/STM32/LLD/I2Cv1/i2c_lld.h"
 831              		.file 42 "../../lib/e-puck2_main-processor/ChibiOS//os/hal/include/i2s.h"
 832              		.file 43 "../../lib/e-puck2_main-processor/ChibiOS//os/hal/ports/STM32/LLD/SPIv1/i2s_lld.h"
 833              		.file 44 "../../lib/e-puck2_main-processor/ChibiOS//os/hal/include/pwm.h"
 834              		.file 45 "../../lib/e-puck2_main-processor/ChibiOS//os/hal/ports/STM32/LLD/TIMv1/pwm_lld.h"
 835              		.file 46 "../../lib/e-puck2_main-processor/ChibiOS//os/hal/include/serial.h"
 836              		.file 47 "../../lib/e-puck2_main-processor/ChibiOS//os/hal/ports/STM32/LLD/USARTv1/serial_lld.h"
 837              		.file 48 "../../lib/e-puck2_main-processor/ChibiOS//os/hal/include/sdc.h"
 838              		.file 49 "../../lib/e-puck2_main-processor/ChibiOS//os/hal/ports/STM32/LLD/sdc_lld.h"
 839              		.file 50 "../../lib/e-puck2_main-processor/ChibiOS//os/hal/include/spi.h"
 840              		.file 51 "../../lib/e-puck2_main-processor/ChibiOS//os/hal/ports/STM32/LLD/SPIv1/spi_lld.h"
 841              		.file 52 "../../lib/e-puck2_main-processor/ChibiOS//os/hal/include/usb.h"
 842              		.file 53 "../../lib/e-puck2_main-processor/ChibiOS//os/hal/ports/STM32/LLD/OTGv1/usb_lld.h"
 843              		.file 54 "../../lib/e-puck2_main-processor/ChibiOS//os/hal/ports/STM32/LLD/OTGv1/stm32_otg.h"
 844              		.file 55 "../../lib/e-puck2_main-processor/ChibiOS//os/hal/include/serial_usb.h"
 845              		.file 56 "../../lib/e-puck2_main-processor/ChibiOS_ext/os/hal/include/../ports/STM32/STM32F4xx/dcm
 846              		.file 57 "/Applications/Eclipse_e-puck2.app/Contents/Eclipse_e-puck2/Tools/gcc-arm-none-eabi-7-201
 847              		.file 58 "/Applications/Eclipse_e-puck2.app/Contents/Eclipse_e-puck2/Tools/gcc-arm-none-eabi-7-201
 848              		.file 59 "<built-in>"
 849              		.file 60 "/Applications/Eclipse_e-puck2.app/Contents/Eclipse_e-puck2/Tools/gcc-arm-none-eabi-7-201
 850              		.file 61 "../../lib/e-puck2_main-processor/src/msgbus/messagebus.h"
 851              		.file 62 "/Applications/Eclipse_e-puck2.app/Contents/Eclipse_e-puck2/Tools/gcc-arm-none-eabi-7-201
 852              		.file 63 "/Applications/Eclipse_e-puck2.app/Contents/Eclipse_e-puck2/Tools/gcc-arm-none-eabi-7-201
 853              		.file 64 "../../lib/e-puck2_main-processor/src/parameter/parameter.h"
 854              		.file 65 "./main.h"
 855              		.file 66 "../../lib/e-puck2_main-processor/src/usbcfg.h"
 856              		.file 67 "/Applications/Eclipse_e-puck2.app/Contents/Eclipse_e-puck2/Tools/gcc-arm-none-eabi-7-201
 857              		.file 68 "./audio_processing.h"
 858              		.file 69 "/Applications/Eclipse_e-puck2.app/Contents/Eclipse_e-puck2/Tools/gcc-arm-none-eabi-7-201
 859              		.file 70 "./fft.h"
 860              		.file 71 "../../lib/e-puck2_main-processor/ChibiOS//os/ext/CMSIS/include/arm_math.h"
 861              		.file 72 "../../lib/e-puck2_main-processor/src/motors.h"