ARM GAS  /var/folders/gd/b85s80v10ws684278k5gqzcr0000gn/T//ccDjqAFu.s 			page 1


   1              		.cpu cortex-m4
   2              		.eabi_attribute 27, 1
   3              		.eabi_attribute 28, 1
   4              		.eabi_attribute 20, 1
   5              		.eabi_attribute 21, 1
   6              		.eabi_attribute 23, 3
   7              		.eabi_attribute 24, 1
   8              		.eabi_attribute 25, 1
   9              		.eabi_attribute 26, 1
  10              		.eabi_attribute 30, 2
  11              		.eabi_attribute 34, 1
  12              		.eabi_attribute 18, 4
  13              		.file	"main.c"
  14              		.text
  15              	.Ltext0:
  16              		.cfi_sections	.debug_frame
  17              		.section	.text.startup.main,"ax",%progbits
  18              		.align	1
  19              		.p2align 4,,15
  20              		.global	main
  21              		.syntax unified
  22              		.thumb
  23              		.thumb_func
  24              		.fpu fpv4-sp-d16
  25              		.type	main, %function
  26              	main:
  27              	.LFB295:
  28              		.file 1 "main.c"
  29              		.loc 1 54 0
  30              		.cfi_startproc
  31              		@ args = 0, pretend = 0, frame = 8
  32              		@ frame_needed = 0, uses_anonymous_args = 0
  33 0000 F0B5     		push	{r4, r5, r6, r7, lr}
  34              		.cfi_def_cfa_offset 20
  35              		.cfi_offset 4, -20
  36              		.cfi_offset 5, -16
  37              		.cfi_offset 6, -12
  38              		.cfi_offset 7, -8
  39              		.cfi_offset 14, -4
  40 0002 1C4B     		ldr	r3, .L8
  41              	.LBB10:
  42              		.loc 1 96 0
  43 0004 1C4F     		ldr	r7, .L8+4
  44              	.LBE10:
  45              		.loc 1 54 0
  46 0006 1B68     		ldr	r3, [r3]
  47 0008 83B0     		sub	sp, sp, #12
  48              		.cfi_def_cfa_offset 32
  49              		.loc 1 54 0
  50 000a 0193     		str	r3, [sp, #4]
  51              		.loc 1 56 0
  52 000c FFF7FEFF 		bl	halInit
  53              	.LVL0:
  54              		.loc 1 57 0
  55 0010 FFF7FEFF 		bl	chSysInit
  56              	.LVL1:
  57              		.loc 1 58 0
ARM GAS  /var/folders/gd/b85s80v10ws684278k5gqzcr0000gn/T//ccDjqAFu.s 			page 2


  58 0014 FFF7FEFF 		bl	mpu_init
  59              	.LVL2:
  60              	.LBB11:
  61              	.LBB12:
  62              		.loc 1 34 0
  63 0018 1849     		ldr	r1, .L8+8
  64 001a 3846     		mov	r0, r7
  65 001c FFF7FEFF 		bl	sdStart
  66              	.LVL3:
  67              	.LBE12:
  68              	.LBE11:
  69              		.loc 1 63 0
  70 0020 FFF7FEFF 		bl	usb_start
  71              	.LVL4:
  72              	.LBB13:
  73              	.LBB14:
  74              		.loc 1 48 0
  75 0024 1649     		ldr	r1, .L8+12
  76 0026 1748     		ldr	r0, .L8+16
  77 0028 FFF7FEFF 		bl	gptStart
  78              	.LVL5:
  79              		.loc 1 50 0
  80 002c 4FF6FF71 		movw	r1, #65535
  81 0030 1448     		ldr	r0, .L8+16
  82 0032 FFF7FEFF 		bl	gptStartContinuous
  83              	.LVL6:
  84              	.LBE14:
  85              	.LBE13:
  86              		.loc 1 67 0
  87 0036 FFF7FEFF 		bl	motors_init
  88              	.LVL7:
  89              	.L2:
  90              	.LBB15:
  91              		.loc 1 93 0
  92 003a 0020     		movs	r0, #0
  93 003c FFF7FEFF 		bl	get_audio_buffer_ptr
  94              	.LVL8:
  95 0040 0546     		mov	r5, r0
  96              	.LVL9:
  97              		.loc 1 94 0
  98 0042 0420     		movs	r0, #4
  99              	.LVL10:
 100 0044 FFF7FEFF 		bl	get_audio_buffer_ptr
 101              	.LVL11:
 102              		.loc 1 96 0
 103 0048 2946     		mov	r1, r5
 104              		.loc 1 94 0
 105 004a 0646     		mov	r6, r0
 106              	.LVL12:
 107              		.loc 1 96 0
 108 004c 4FF48062 		mov	r2, #1024
 109 0050 3846     		mov	r0, r7
 110              	.LVL13:
 111 0052 FFF7FEFF 		bl	ReceiveInt16FromComputer
 112              	.LVL14:
 113              		.loc 1 98 0
 114 0056 B0F5806F 		cmp	r0, #1024
ARM GAS  /var/folders/gd/b85s80v10ws684278k5gqzcr0000gn/T//ccDjqAFu.s 			page 3


 115              		.loc 1 96 0
 116 005a 0446     		mov	r4, r0
 117              	.LVL15:
 118              		.loc 1 98 0
 119 005c EDD1     		bne	.L2
 120              		.loc 1 114 0
 121 005e 2846     		mov	r0, r5
 122              	.LVL16:
 123 0060 2246     		mov	r2, r4
 124 0062 3146     		mov	r1, r6
 125 0064 FFF7FEFF 		bl	arm_cmplx_mag_f32
 126              	.LVL17:
 127              		.loc 1 116 0
 128 0068 2246     		mov	r2, r4
 129 006a 3146     		mov	r1, r6
 130 006c 3846     		mov	r0, r7
 131 006e FFF7FEFF 		bl	SendFloatToComputer
 132              	.LVL18:
 133 0072 E2E7     		b	.L2
 134              	.L9:
 135              		.align	2
 136              	.L8:
 137 0074 00000000 		.word	__stack_chk_guard
 138 0078 00000000 		.word	SD3
 139 007c 00000000 		.word	.LANCHOR0
 140 0080 00000000 		.word	.LANCHOR1
 141 0084 00000000 		.word	GPTD12
 142              	.LBE15:
 143              		.cfi_endproc
 144              	.LFE295:
 145              		.size	main, .-main
 146              		.section	.text.__stack_chk_fail,"ax",%progbits
 147              		.align	1
 148              		.p2align 4,,15
 149              		.global	__stack_chk_fail
 150              		.syntax unified
 151              		.thumb
 152              		.thumb_func
 153              		.fpu fpv4-sp-d16
 154              		.type	__stack_chk_fail, %function
 155              	__stack_chk_fail:
 156              	.LFB296:
 157              		.loc 1 127 0
 158              		.cfi_startproc
 159              		@ args = 0, pretend = 0, frame = 8
 160              		@ frame_needed = 0, uses_anonymous_args = 0
 161 0000 00B5     		push	{lr}
 162              		.cfi_def_cfa_offset 4
 163              		.cfi_offset 14, -4
 164 0002 084B     		ldr	r3, .L15
 165 0004 83B0     		sub	sp, sp, #12
 166              		.cfi_def_cfa_offset 16
 167              		.loc 1 127 0
 168 0006 1A68     		ldr	r2, [r3]
 169 0008 0192     		str	r2, [sp, #4]
 170              		.loc 1 128 0
 171 000a 019A     		ldr	r2, [sp, #4]
ARM GAS  /var/folders/gd/b85s80v10ws684278k5gqzcr0000gn/T//ccDjqAFu.s 			page 4


 172 000c 1B68     		ldr	r3, [r3]
 173 000e 9A42     		cmp	r2, r3
 174 0010 05D1     		bne	.L14
 175 0012 0548     		ldr	r0, .L15+4
 176              		.loc 1 129 0
 177 0014 03B0     		add	sp, sp, #12
 178              		.cfi_remember_state
 179              		.cfi_def_cfa_offset 4
 180              		@ sp needed
 181 0016 5DF804EB 		ldr	lr, [sp], #4
 182              		.cfi_restore 14
 183              		.cfi_def_cfa_offset 0
 184              		.loc 1 128 0
 185 001a FFF7FEBF 		b	chSysHalt
 186              	.LVL19:
 187              	.L14:
 188              		.cfi_restore_state
 189 001e FFF7FEFF 		bl	__stack_chk_fail
 190              	.LVL20:
 191              	.L16:
 192 0022 00BF     		.align	2
 193              	.L15:
 194 0024 00000000 		.word	__stack_chk_guard
 195 0028 00000000 		.word	.LC0
 196              		.cfi_endproc
 197              	.LFE296:
 198              		.size	__stack_chk_fail, .-__stack_chk_fail
 199              		.global	__stack_chk_guard
 200              		.section	.data.__stack_chk_guard,"aw",%progbits
 201              		.align	2
 202              		.type	__stack_chk_guard, %object
 203              		.size	__stack_chk_guard, 4
 204              	__stack_chk_guard:
 205 0000 96E3DEE2 		.word	-488709226
 206              		.section	.data.ser_cfg.14894,"aw",%progbits
 207              		.align	2
 208              		.set	.LANCHOR0,. + 0
 209              		.type	ser_cfg.14894, %object
 210              		.size	ser_cfg.14894, 12
 211              	ser_cfg.14894:
 212 0000 00C20100 		.word	115200
 213 0004 0000     		.short	0
 214 0006 0000     		.short	0
 215 0008 0000     		.short	0
 216 000a 0000     		.space	2
 217              		.section	.rodata.__stack_chk_fail.str1.4,"aMS",%progbits,1
 218              		.align	2
 219              	.LC0:
 220 0000 53746163 		.ascii	"Stack smashing detected\000"
 220      6B20736D 
 220      61736869 
 220      6E672064 
 220      65746563 
 221              		.section	.rodata.gpt12cfg.14898,"a",%progbits
 222              		.align	2
 223              		.set	.LANCHOR1,. + 0
 224              		.type	gpt12cfg.14898, %object
ARM GAS  /var/folders/gd/b85s80v10ws684278k5gqzcr0000gn/T//ccDjqAFu.s 			page 5


 225              		.size	gpt12cfg.14898, 16
 226              	gpt12cfg.14898:
 227 0000 40420F00 		.word	1000000
 228 0004 00000000 		.word	0
 229 0008 00000000 		.word	0
 230 000c 00000000 		.word	0
 231              		.text
 232              	.Letext0:
 233              		.file 2 "/Applications/Eclipse_e-puck2.app/Contents/Eclipse_e-puck2/Tools/gcc-arm-none-eabi-7-2017
 234              		.file 3 "/Applications/Eclipse_e-puck2.app/Contents/Eclipse_e-puck2/Tools/gcc-arm-none-eabi-7-2017
 235              		.file 4 "/Applications/Eclipse_e-puck2.app/Contents/Eclipse_e-puck2/Tools/gcc-arm-none-eabi-7-2017
 236              		.file 5 "/Applications/Eclipse_e-puck2.app/Contents/Eclipse_e-puck2/Tools/gcc-arm-none-eabi-7-2017
 237              		.file 6 "/Applications/Eclipse_e-puck2.app/Contents/Eclipse_e-puck2/Tools/gcc-arm-none-eabi-7-2017
 238              		.file 7 "/Applications/Eclipse_e-puck2.app/Contents/Eclipse_e-puck2/Tools/gcc-arm-none-eabi-7-2017
 239              		.file 8 "/Applications/Eclipse_e-puck2.app/Contents/Eclipse_e-puck2/Tools/gcc-arm-none-eabi-7-2017
 240              		.file 9 "../../lib/e-puck2_main-processor/ChibiOS//os/rt/ports/ARMCMx/compilers/GCC/chtypes.h"
 241              		.file 10 "../../lib/e-puck2_main-processor/ChibiOS//os/rt/include/chsystypes.h"
 242              		.file 11 "../../lib/e-puck2_main-processor/ChibiOS//os/rt/include/chschd.h"
 243              		.file 12 "../../lib/e-puck2_main-processor/ChibiOS//os/ext/CMSIS/include/core_cm4.h"
 244              		.file 13 "../../lib/e-puck2_main-processor/ChibiOS//os/ext/CMSIS/ST/system_stm32f4xx.h"
 245              		.file 14 "../../lib/e-puck2_main-processor/ChibiOS//os/ext/CMSIS/ST/stm32f407xx.h"
 246              		.file 15 "../../lib/e-puck2_main-processor/ChibiOS//os/rt/ports/ARMCMx/chcore.h"
 247              		.file 16 "../../lib/e-puck2_main-processor/ChibiOS//os/rt/ports/ARMCMx/chcore_v7m.h"
 248              		.file 17 "../../lib/e-puck2_main-processor/ChibiOS//os/rt/include/chdebug.h"
 249              		.file 18 "../../lib/e-puck2_main-processor/ChibiOS//os/rt/include/chtm.h"
 250              		.file 19 "../../lib/e-puck2_main-processor/ChibiOS//os/rt/include/chstats.h"
 251              		.file 20 "../../lib/e-puck2_main-processor/ChibiOS//os/rt/include/chsem.h"
 252              		.file 21 "../../lib/e-puck2_main-processor/ChibiOS//os/rt/include/chmtx.h"
 253              		.file 22 "../../lib/e-puck2_main-processor/ChibiOS//os/rt/include/chregistry.h"
 254              		.file 23 "../../lib/e-puck2_main-processor/ChibiOS//os/rt/include/chevents.h"
 255              		.file 24 "../../lib/e-puck2_main-processor/ChibiOS//os/rt/include/chqueues.h"
 256              		.file 25 "../../lib/e-puck2_main-processor/ChibiOS//os/rt/include/chstreams.h"
 257              		.file 26 "../../lib/e-puck2_main-processor/ChibiOS//os/hal/ports/STM32/STM32F4xx/stm32_dma.h"
 258              		.file 27 "../../lib/e-puck2_main-processor/ChibiOS//os/hal/include/hal_ioblock.h"
 259              		.file 28 "../../lib/e-puck2_main-processor/ChibiOS//os/hal/ports/STM32/LLD/GPIOv2/pal_lld.h"
 260              		.file 29 "../../lib/e-puck2_main-processor/ChibiOS//os/hal/include/adc.h"
 261              		.file 30 "../../lib/e-puck2_main-processor/ChibiOS//os/hal/ports/STM32/STM32F4xx/adc_lld.h"
 262              		.file 31 "../../lib/e-puck2_main-processor/ChibiOS//os/hal/include/can.h"
 263              		.file 32 "../../lib/e-puck2_main-processor/ChibiOS//os/hal/ports/STM32/LLD/can_lld.h"
 264              		.file 33 "../../lib/e-puck2_main-processor/ChibiOS//os/hal/include/dac.h"
 265              		.file 34 "../../lib/e-puck2_main-processor/ChibiOS//os/hal/ports/STM32/LLD/DACv1/dac_lld.h"
 266              		.file 35 "../../lib/e-puck2_main-processor/ChibiOS//os/hal/include/ext.h"
 267              		.file 36 "../../lib/e-puck2_main-processor/ChibiOS//os/hal/ports/STM32/LLD/ext_lld.h"
 268              		.file 37 "../../lib/e-puck2_main-processor/ChibiOS//os/hal/include/gpt.h"
 269              		.file 38 "../../lib/e-puck2_main-processor/ChibiOS//os/hal/ports/STM32/LLD/TIMv1/gpt_lld.h"
 270              		.file 39 "../../lib/e-puck2_main-processor/ChibiOS//os/hal/ports/STM32/LLD/TIMv1/stm32_tim.h"
 271              		.file 40 "../../lib/e-puck2_main-processor/ChibiOS//os/hal/include/i2c.h"
 272              		.file 41 "../../lib/e-puck2_main-processor/ChibiOS//os/hal/ports/STM32/LLD/I2Cv1/i2c_lld.h"
 273              		.file 42 "../../lib/e-puck2_main-processor/ChibiOS//os/hal/include/i2s.h"
 274              		.file 43 "../../lib/e-puck2_main-processor/ChibiOS//os/hal/ports/STM32/LLD/SPIv1/i2s_lld.h"
 275              		.file 44 "../../lib/e-puck2_main-processor/ChibiOS//os/hal/include/pwm.h"
 276              		.file 45 "../../lib/e-puck2_main-processor/ChibiOS//os/hal/ports/STM32/LLD/TIMv1/pwm_lld.h"
 277              		.file 46 "../../lib/e-puck2_main-processor/ChibiOS//os/hal/include/serial.h"
 278              		.file 47 "../../lib/e-puck2_main-processor/ChibiOS//os/hal/ports/STM32/LLD/USARTv1/serial_lld.h"
 279              		.file 48 "../../lib/e-puck2_main-processor/ChibiOS//os/hal/include/sdc.h"
 280              		.file 49 "../../lib/e-puck2_main-processor/ChibiOS//os/hal/ports/STM32/LLD/sdc_lld.h"
 281              		.file 50 "../../lib/e-puck2_main-processor/ChibiOS//os/hal/include/spi.h"
ARM GAS  /var/folders/gd/b85s80v10ws684278k5gqzcr0000gn/T//ccDjqAFu.s 			page 6


 282              		.file 51 "../../lib/e-puck2_main-processor/ChibiOS//os/hal/ports/STM32/LLD/SPIv1/spi_lld.h"
 283              		.file 52 "../../lib/e-puck2_main-processor/ChibiOS//os/hal/include/usb.h"
 284              		.file 53 "../../lib/e-puck2_main-processor/ChibiOS//os/hal/ports/STM32/LLD/OTGv1/usb_lld.h"
 285              		.file 54 "../../lib/e-puck2_main-processor/ChibiOS//os/hal/ports/STM32/LLD/OTGv1/stm32_otg.h"
 286              		.file 55 "../../lib/e-puck2_main-processor/ChibiOS//os/hal/include/serial_usb.h"
 287              		.file 56 "../../lib/e-puck2_main-processor/src/usbcfg.h"
 288              		.file 57 "../../lib/e-puck2_main-processor/ChibiOS_ext/os/hal/include/../ports/STM32/STM32F4xx/dcm
 289              		.file 58 "/Applications/Eclipse_e-puck2.app/Contents/Eclipse_e-puck2/Tools/gcc-arm-none-eabi-7-201
 290              		.file 59 "../../lib/e-puck2_main-processor/src/msgbus/messagebus.h"
 291              		.file 60 "../../lib/e-puck2_main-processor/src/parameter/parameter.h"
 292              		.file 61 "./main.h"
 293              		.file 62 "./audio_processing.h"
 294              		.file 63 "/Applications/Eclipse_e-puck2.app/Contents/Eclipse_e-puck2/Tools/gcc-arm-none-eabi-7-201
 295              		.file 64 "../../lib/e-puck2_main-processor/ChibiOS//os/rt/include/chsys.h"
 296              		.file 65 "./communications.h"
 297              		.file 66 "../../lib/e-puck2_main-processor/ChibiOS//os/ext/CMSIS/include/arm_math.h"
 298              		.file 67 "../../lib/e-puck2_main-processor/ChibiOS//os/hal/include/hal.h"
 299              		.file 68 "../../lib/e-puck2_main-processor/src/memory_protection.h"
 300              		.file 69 "../../lib/e-puck2_main-processor/src/motors.h"