ARM GAS  /var/folders/gd/b85s80v10ws684278k5gqzcr0000gn/T//cc6EQLhQ.s 			page 1


   1              		.cpu cortex-m4
   2              		.eabi_attribute 27, 1
   3              		.eabi_attribute 28, 1
   4              		.eabi_attribute 20, 1
   5              		.eabi_attribute 21, 1
   6              		.eabi_attribute 23, 3
   7              		.eabi_attribute 24, 1
   8              		.eabi_attribute 25, 1
   9              		.eabi_attribute 26, 1
  10              		.eabi_attribute 30, 2
  11              		.eabi_attribute 34, 1
  12              		.eabi_attribute 18, 4
  13              		.file	"imu.c"
  14              		.text
  15              	.Ltext0:
  16              		.cfi_sections	.debug_frame
  17              		.section	.text.imu_compute_units,"ax",%progbits
  18              		.align	1
  19              		.p2align 4,,15
  20              		.global	imu_compute_units
  21              		.syntax unified
  22              		.thumb
  23              		.thumb_func
  24              		.fpu fpv4-sp-d16
  25              		.type	imu_compute_units, %function
  26              	imu_compute_units:
  27              	.LFB256:
  28              		.file 1 "imu.c"
  29              		.loc 1 26 0
  30              		.cfi_startproc
  31              		@ args = 0, pretend = 0, frame = 0
  32              		@ frame_needed = 0, uses_anonymous_args = 0
  33              		@ link register save eliminated.
  34              		.loc 1 27 0
  35 0000 424B     		ldr	r3, .L4
  36              		.loc 1 31 0
  37 0002 9FED433A 		vldr.32	s6, .L4+4
  38              		.loc 1 32 0
  39 0006 B3F93C10 		ldrsh	r1, [r3, #60]
  40              		.loc 1 33 0
  41 000a B3F93E20 		ldrsh	r2, [r3, #62]
  42              		.loc 1 31 0
  43 000e B3F92E00 		ldrsh	r0, [r3, #46]
  44 0012 DFED403A 		vldr.32	s7, .L4+8
  45              		.loc 1 27 0
  46 0016 9FED404A 		vldr.32	s8, .L4+12
  47 001a DFED404A 		vldr.32	s9, .L4+16
  48              		.loc 1 26 0
  49 001e F0B4     		push	{r4, r5, r6, r7}
  50              		.cfi_def_cfa_offset 16
  51              		.cfi_offset 4, -16
  52              		.cfi_offset 5, -12
  53              		.cfi_offset 6, -8
  54              		.cfi_offset 7, -4
  55              		.loc 1 31 0
  56 0020 3F4C     		ldr	r4, .L4+20
  57 0022 B3F93A60 		ldrsh	r6, [r3, #58]
ARM GAS  /var/folders/gd/b85s80v10ws684278k5gqzcr0000gn/T//cc6EQLhQ.s 			page 2


  58              		.loc 1 27 0
  59 0026 B3F93450 		ldrsh	r5, [r3, #52]
  60              		.loc 1 31 0
  61 002a 84FB06C7 		smull	ip, r7, r4, r6
  62 002e 3744     		add	r7, r7, r6
  63 0030 F617     		asrs	r6, r6, #31
  64 0032 C6EBE716 		rsb	r6, r6, r7, asr #7
  65              		.loc 1 32 0
  66 0036 84FB01C7 		smull	ip, r7, r4, r1
  67              		.loc 1 33 0
  68 003a 84FB02C4 		smull	ip, r4, r4, r2
  69 003e 1444     		add	r4, r4, r2
  70 0040 D217     		asrs	r2, r2, #31
  71              		.loc 1 32 0
  72 0042 0F44     		add	r7, r7, r1
  73              		.loc 1 33 0
  74 0044 C2EBE412 		rsb	r2, r2, r4, asr #7
  75              		.loc 1 32 0
  76 0048 C917     		asrs	r1, r1, #31
  77              		.loc 1 31 0
  78 004a 34B2     		sxth	r4, r6
  79              		.loc 1 32 0
  80 004c C1EBE711 		rsb	r1, r1, r7, asr #7
  81              		.loc 1 31 0
  82 0050 06EE904A 		vmov	s13, r4	@ int
  83              		.loc 1 32 0
  84 0054 B3F93040 		ldrsh	r4, [r3, #48]
  85 0058 09B2     		sxth	r1, r1
  86 005a 07EE901A 		vmov	s15, r1	@ int
  87 005e 05EE904A 		vmov	s11, r4	@ int
  88              		.loc 1 33 0
  89 0062 B3F93240 		ldrsh	r4, [r3, #50]
  90              		.loc 1 28 0
  91 0066 B3F92A10 		ldrsh	r1, [r3, #42]
  92              		.loc 1 33 0
  93 006a 12B2     		sxth	r2, r2
  94              		.loc 1 32 0
  95 006c B8EEE77A 		vcvt.f32.s32	s14, s15
  96              		.loc 1 31 0
  97 0070 05EE100A 		vmov	s10, r0	@ int
  98              		.loc 1 33 0
  99 0074 06EE104A 		vmov	s12, r4	@ int
 100 0078 07EE902A 		vmov	s15, r2	@ int
 101              		.loc 1 31 0
 102 007c F8EEE66A 		vcvt.f32.s32	s13, s13
 103              		.loc 1 33 0
 104 0080 F8EEE77A 		vcvt.f32.s32	s15, s15
 105              		.loc 1 31 0
 106 0084 B8EEC55A 		vcvt.f32.s32	s10, s10
 107              		.loc 1 32 0
 108 0088 F8EEE55A 		vcvt.f32.s32	s11, s11
 109              		.loc 1 33 0
 110 008c B8EEC66A 		vcvt.f32.s32	s12, s12
 111              		.loc 1 32 0
 112 0090 E7EE435A 		vfms.f32	s11, s14, s6
 113              		.loc 1 28 0
 114 0094 B3F93640 		ldrsh	r4, [r3, #54]
ARM GAS  /var/folders/gd/b85s80v10ws684278k5gqzcr0000gn/T//cc6EQLhQ.s 			page 3


 115              		.loc 1 27 0
 116 0098 B3F92800 		ldrsh	r0, [r3, #40]
 117              		.loc 1 29 0
 118 009c B3F92C20 		ldrsh	r2, [r3, #44]
 119              		.loc 1 31 0
 120 00a0 A6EEC35A 		vfms.f32	s10, s13, s6
 121              		.loc 1 28 0
 122 00a4 091B     		subs	r1, r1, r4
 123              		.loc 1 27 0
 124 00a6 401B     		subs	r0, r0, r5
 125              		.loc 1 33 0
 126 00a8 A7EEC36A 		vfms.f32	s12, s15, s6
 127              		.loc 1 34 0
 128 00ac F0BC     		pop	{r4, r5, r6, r7}
 129              		.cfi_restore 7
 130              		.cfi_restore 6
 131              		.cfi_restore 5
 132              		.cfi_restore 4
 133              		.cfi_def_cfa_offset 0
 134              		.loc 1 31 0
 135 00ae 85EE233A 		vdiv.f32	s6, s10, s7
 136              		.loc 1 32 0
 137 00b2 85EEA35A 		vdiv.f32	s10, s11, s7
 138              		.loc 1 33 0
 139 00b6 C6EE235A 		vdiv.f32	s11, s12, s7
 140              		.loc 1 28 0
 141 00ba 07EE101A 		vmov	s14, r1	@ int
 142              		.loc 1 29 0
 143 00be B3F93810 		ldrsh	r1, [r3, #56]
 144              		.loc 1 31 0
 145 00c2 83ED033A 		vstr.32	s6, [r3, #12]
 146              		.loc 1 29 0
 147 00c6 521A     		subs	r2, r2, r1
 148              		.loc 1 27 0
 149 00c8 06EE900A 		vmov	s13, r0	@ int
 150              		.loc 1 29 0
 151 00cc 07EE902A 		vmov	s15, r2	@ int
 152              		.loc 1 27 0
 153 00d0 F8EEE66A 		vcvt.f32.s32	s13, s13
 154              		.loc 1 28 0
 155 00d4 B8EEC77A 		vcvt.f32.s32	s14, s14
 156              		.loc 1 29 0
 157 00d8 F8EEE77A 		vcvt.f32.s32	s15, s15
 158              		.loc 1 27 0
 159 00dc 66EE846A 		vmul.f32	s13, s13, s8
 160              		.loc 1 28 0
 161 00e0 27EE047A 		vmul.f32	s14, s14, s8
 162              		.loc 1 29 0
 163 00e4 67EE847A 		vmul.f32	s15, s15, s8
 164              		.loc 1 27 0
 165 00e8 66EEA46A 		vmul.f32	s13, s13, s9
 166              		.loc 1 28 0
 167 00ec 27EE247A 		vmul.f32	s14, s14, s9
 168              		.loc 1 29 0
 169 00f0 67EEA47A 		vmul.f32	s15, s15, s9
 170              		.loc 1 27 0
 171 00f4 C3ED006A 		vstr.32	s13, [r3]
ARM GAS  /var/folders/gd/b85s80v10ws684278k5gqzcr0000gn/T//cc6EQLhQ.s 			page 4


 172              		.loc 1 28 0
 173 00f8 83ED017A 		vstr.32	s14, [r3, #4]
 174              		.loc 1 29 0
 175 00fc C3ED027A 		vstr.32	s15, [r3, #8]
 176              		.loc 1 32 0
 177 0100 83ED045A 		vstr.32	s10, [r3, #16]
 178              		.loc 1 33 0
 179 0104 C3ED055A 		vstr.32	s11, [r3, #20]
 180              		.loc 1 34 0
 181 0108 7047     		bx	lr
 182              	.L5:
 183 010a 00BF     		.align	2
 184              	.L4:
 185 010c 00000000 		.word	.LANCHOR0
 186 0110 DB0F4940 		.word	1078530011
 187 0114 00000343 		.word	1124270080
 188 0118 0AE81C41 		.word	1092413450
 189 011c 00008038 		.word	947912704
 190 0120 B7600BB6 		.word	-1240768329
 191              		.cfi_endproc
 192              	.LFE256:
 193              		.size	imu_compute_units, .-imu_compute_units
 194              		.section	.text.imu_reader_thd,"ax",%progbits
 195              		.align	1
 196              		.p2align 4,,15
 197              		.syntax unified
 198              		.thumb
 199              		.thumb_func
 200              		.fpu fpv4-sp-d16
 201              		.type	imu_reader_thd, %function
 202              	imu_reader_thd:
 203              	.LFB257:
 204              		.loc 1 39 0
 205              		.cfi_startproc
 206              		@ args = 0, pretend = 0, frame = 120
 207              		@ frame_needed = 0, uses_anonymous_args = 0
 208              	.LVL0:
 209 0000 2DE9F043 		push	{r4, r5, r6, r7, r8, r9, lr}
 210              		.cfi_def_cfa_offset 28
 211              		.cfi_offset 4, -28
 212              		.cfi_offset 5, -24
 213              		.cfi_offset 6, -20
 214              		.cfi_offset 7, -16
 215              		.cfi_offset 8, -12
 216              		.cfi_offset 9, -8
 217              		.cfi_offset 14, -4
 218              	.LBB58:
 219              	.LBB59:
 220              		.file 2 "../../lib/ChibiOS/os/rt/include/chregistry.h"
 221              		.loc 2 135 0
 222 0004 2F4C     		ldr	r4, .L17
 223 0006 3049     		ldr	r1, .L17+4
 224 0008 A269     		ldr	r2, [r4, #24]
 225              	.LBE59:
 226              	.LBE58:
 227              		.loc 1 47 0
 228 000a 304B     		ldr	r3, .L17+8
ARM GAS  /var/folders/gd/b85s80v10ws684278k5gqzcr0000gn/T//cc6EQLhQ.s 			page 5


 229              	.LBB61:
 230              	.LBB60:
 231              		.loc 2 135 0
 232 000c 9161     		str	r1, [r2, #24]
 233              	.LVL1:
 234              	.LBE60:
 235              	.LBE61:
 236              		.loc 1 39 0
 237 000e A1B0     		sub	sp, sp, #132
 238              		.cfi_def_cfa_offset 160
 239              		.loc 1 45 0
 240 0010 04A8     		add	r0, sp, #16
 241              	.LVL2:
 242              		.loc 1 46 0
 243 0012 02AD     		add	r5, sp, #8
 244              		.loc 1 47 0
 245 0014 5022     		movs	r2, #80
 246 0016 0146     		mov	r1, r0
 247 0018 0092     		str	r2, [sp]
 248              		.loc 1 45 0
 249 001a CDE90400 		strd	r0, r0, [sp, #16]
 250              		.loc 1 47 0
 251 001e 2A46     		mov	r2, r5
 252 0020 09A8     		add	r0, sp, #36
 253              		.loc 1 46 0
 254 0022 CDE90255 		strd	r5, r5, [sp, #8]
 255              		.loc 1 45 0
 256 0026 0025     		movs	r5, #0
 257 0028 CDE90655 		strd	r5, r5, [sp, #24]
 258 002c 0895     		str	r5, [sp, #32]
 259              		.loc 1 47 0
 260 002e FFF7FEFF 		bl	messagebus_topic_init
 261              	.LVL3:
 262              		.loc 1 48 0
 263 0032 274A     		ldr	r2, .L17+12
 264 0034 2748     		ldr	r0, .L17+16
 265 0036 09A9     		add	r1, sp, #36
 266 0038 FFF7FEFF 		bl	messagebus_advertise_topic
 267              	.LVL4:
 268              	.LBB62:
 269              	.LBB63:
 270              		.file 3 "../../lib/ChibiOS/os/rt/include/chthreads.h"
 271              		.loc 3 233 0
 272 003c A369     		ldr	r3, [r4, #24]
 273              	.LBE63:
 274              	.LBE62:
 275              		.loc 1 52 0
 276 003e 93F82130 		ldrb	r3, [r3, #33]	@ zero_extendqisi2
 277 0042 5A07     		lsls	r2, r3, #29
 278 0044 3AD4     		bmi	.L6
 279              		.loc 1 57 0
 280 0046 DFF89880 		ldr	r8, .L17+28
 281 004a 234F     		ldr	r7, .L17+20
 282              	.LBB65:
 283              	.LBB66:
 284              	.LBB67:
 285              	.LBB68:
ARM GAS  /var/folders/gd/b85s80v10ws684278k5gqzcr0000gn/T//cc6EQLhQ.s 			page 6


 286              		.file 4 "../../lib/ChibiOS/os/rt/include/chsys.h"
 287              		.loc 4 367 0
 288 004c DFF89490 		ldr	r9, .L17+32
 289              	.LBE68:
 290              	.LBE67:
 291              	.LBE66:
 292              	.LBE65:
 293              		.loc 1 63 0
 294 0050 A8F14C06 		sub	r6, r8, #76
 295 0054 0DE0     		b	.L10
 296              	.L9:
 297 0056 5022     		movs	r2, #80
 298 0058 3146     		mov	r1, r6
 299 005a 09A8     		add	r0, sp, #36
 300 005c FFF7FEFF 		bl	messagebus_topic_publish
 301              	.LVL5:
 302              		.loc 1 65 0
 303 0060 291D     		adds	r1, r5, #4
 304 0062 2846     		mov	r0, r5
 305 0064 FFF7FEFF 		bl	chThdSleepUntilWindowed
 306              	.LVL6:
 307              	.LBB82:
 308              	.LBB64:
 309              		.loc 3 233 0
 310 0068 A369     		ldr	r3, [r4, #24]
 311              	.LBE64:
 312              	.LBE82:
 313              		.loc 1 52 0
 314 006a 93F82130 		ldrb	r3, [r3, #33]	@ zero_extendqisi2
 315 006e 5B07     		lsls	r3, r3, #29
 316 0070 24D4     		bmi	.L6
 317              	.L10:
 318              	.LVL7:
 319              	.LBB83:
 320              	.LBB81:
 321              	.LBB73:
 322              	.LBB74:
 323              	.LBB75:
 324              	.LBB76:
 325              	.LBB77:
 326              		.file 5 "../../lib/ChibiOS/os/ext/CMSIS/include/core_cmFunc.h"
 327              		.loc 5 546 0
 328 0072 2023     		movs	r3, #32
 329              		.syntax unified
 330              	@ 546 "../../lib/ChibiOS/os/ext/CMSIS/include/core_cmFunc.h" 1
 331 0074 83F31188 		MSR basepri, r3
 332              	@ 0 "" 2
 333              	.LVL8:
 334              		.thumb
 335              		.syntax unified
 336              	.LBE77:
 337              	.LBE76:
 338              	.LBE75:
 339              		.loc 4 349 0
 340 0078 FFF7FEFF 		bl	_stats_start_measure_crit_thd
 341              	.LVL9:
 342              		.loc 4 350 0
ARM GAS  /var/folders/gd/b85s80v10ws684278k5gqzcr0000gn/T//cc6EQLhQ.s 			page 7


 343 007c FFF7FEFF 		bl	_dbg_check_lock
 344              	.LVL10:
 345              	.LBE74:
 346              	.LBE73:
 347              	.LBB78:
 348              	.LBB79:
 349              		.file 6 "../../lib/ChibiOS/os/rt/include/chvt.h"
 350              		.loc 6 231 0
 351 0080 A56A     		ldr	r5, [r4, #40]
 352              	.LBE79:
 353              	.LBE78:
 354              	.LBB80:
 355              	.LBB72:
 356              		.loc 4 360 0
 357 0082 FFF7FEFF 		bl	_dbg_check_unlock
 358              	.LVL11:
 359              		.loc 4 361 0
 360 0086 FFF7FEFF 		bl	_stats_stop_measure_crit_thd
 361              	.LVL12:
 362              		.loc 4 367 0
 363 008a 2368     		ldr	r3, [r4]
 364 008c A342     		cmp	r3, r4
 365 008e 07D0     		beq	.L8
 366 0090 A269     		ldr	r2, [r4, #24]
 367 0092 9B68     		ldr	r3, [r3, #8]
 368 0094 9268     		ldr	r2, [r2, #8]
 369 0096 9A42     		cmp	r2, r3
 370 0098 02D2     		bcs	.L8
 371 009a 4846     		mov	r0, r9
 372 009c FFF7FEFF 		bl	chSysHalt
 373              	.LVL13:
 374              	.L8:
 375              	.LBB69:
 376              	.LBB70:
 377              	.LBB71:
 378              		.loc 5 546 0
 379 00a0 0023     		movs	r3, #0
 380              		.syntax unified
 381              	@ 546 "../../lib/ChibiOS/os/ext/CMSIS/include/core_cmFunc.h" 1
 382 00a2 83F31188 		MSR basepri, r3
 383              	@ 0 "" 2
 384              	.LVL14:
 385              		.thumb
 386              		.syntax unified
 387              	.LBE71:
 388              	.LBE70:
 389              	.LBE69:
 390              	.LBE72:
 391              	.LBE80:
 392              	.LBE81:
 393              	.LBE83:
 394              		.loc 1 55 0
 395 00a6 3B78     		ldrb	r3, [r7]	@ zero_extendqisi2
 396 00a8 002B     		cmp	r3, #0
 397 00aa D4D0     		beq	.L9
 398              		.loc 1 57 0
 399 00ac 0B49     		ldr	r1, .L17+24
ARM GAS  /var/folders/gd/b85s80v10ws684278k5gqzcr0000gn/T//cc6EQLhQ.s 			page 8


 400 00ae 4246     		mov	r2, r8
 401 00b0 881D     		adds	r0, r1, #6
 402 00b2 FFF7FEFF 		bl	mpu9250_read
 403              	.LVL15:
 404              		.loc 1 59 0
 405 00b6 FFF7FEFF 		bl	imu_compute_units
 406              	.LVL16:
 407 00ba CCE7     		b	.L9
 408              	.L6:
 409              		.loc 1 68 0
 410 00bc 21B0     		add	sp, sp, #132
 411              		.cfi_def_cfa_offset 28
 412              		@ sp needed
 413 00be BDE8F083 		pop	{r4, r5, r6, r7, r8, r9, pc}
 414              	.L18:
 415 00c2 00BF     		.align	2
 416              	.L17:
 417 00c4 00000000 		.word	ch
 418 00c8 00000000 		.word	.LANCHOR1
 419 00cc 00000000 		.word	.LANCHOR0
 420 00d0 00000000 		.word	.LC0
 421 00d4 00000000 		.word	bus
 422 00d8 00000000 		.word	.LANCHOR3
 423 00dc 28000000 		.word	.LANCHOR0+40
 424 00e0 4C000000 		.word	.LANCHOR0+76
 425 00e4 00000000 		.word	.LANCHOR2
 426              		.cfi_endproc
 427              	.LFE257:
 428              		.size	imu_reader_thd, .-imu_reader_thd
 429              		.section	.text.imu_start,"ax",%progbits
 430              		.align	1
 431              		.p2align 4,,15
 432              		.global	imu_start
 433              		.syntax unified
 434              		.thumb
 435              		.thumb_func
 436              		.fpu fpv4-sp-d16
 437              		.type	imu_start, %function
 438              	imu_start:
 439              	.LFB258:
 440              		.loc 1 76 0
 441              		.cfi_startproc
 442              		@ args = 0, pretend = 0, frame = 0
 443              		@ frame_needed = 0, uses_anonymous_args = 0
 444              	.LVL17:
 445 0000 00B5     		push	{lr}
 446              		.cfi_def_cfa_offset 4
 447              		.cfi_offset 14, -4
 448              		.loc 1 79 0
 449 0002 4FF4C840 		mov	r0, #25600
 450              		.loc 1 76 0
 451 0006 83B0     		sub	sp, sp, #12
 452              		.cfi_def_cfa_offset 16
 453              		.loc 1 79 0
 454 0008 FFF7FEFF 		bl	mpu9250_setup
 455              	.LVL18:
 456              		.loc 1 90 0
ARM GAS  /var/folders/gd/b85s80v10ws684278k5gqzcr0000gn/T//cc6EQLhQ.s 			page 9


 457 000c 10B9     		cbnz	r0, .L20
 458              		.loc 1 91 0
 459 000e 084B     		ldr	r3, .L22
 460 0010 0122     		movs	r2, #1
 461 0012 1A70     		strb	r2, [r3]
 462              	.L20:
 463              		.loc 1 95 0
 464 0014 0023     		movs	r3, #0
 465 0016 0093     		str	r3, [sp]
 466 0018 4022     		movs	r2, #64
 467 001a 064B     		ldr	r3, .L22+4
 468 001c 0648     		ldr	r0, .L22+8
 469              	.LVL19:
 470 001e 4FF4AF61 		mov	r1, #1400
 471 0022 FFF7FEFF 		bl	chThdCreateStatic
 472              	.LVL20:
 473 0026 054B     		ldr	r3, .L22+12
 474 0028 1860     		str	r0, [r3]
 475              		.loc 1 96 0
 476 002a 03B0     		add	sp, sp, #12
 477              		.cfi_def_cfa_offset 4
 478              		@ sp needed
 479 002c 5DF804FB 		ldr	pc, [sp], #4
 480              	.L23:
 481              		.align	2
 482              	.L22:
 483 0030 00000000 		.word	.LANCHOR3
 484 0034 00000000 		.word	imu_reader_thd
 485 0038 00000000 		.word	.LANCHOR4
 486 003c 00000000 		.word	.LANCHOR5
 487              		.cfi_endproc
 488              	.LFE258:
 489              		.size	imu_start, .-imu_start
 490              		.section	.text.imu_stop,"ax",%progbits
 491              		.align	1
 492              		.p2align 4,,15
 493              		.global	imu_stop
 494              		.syntax unified
 495              		.thumb
 496              		.thumb_func
 497              		.fpu fpv4-sp-d16
 498              		.type	imu_stop, %function
 499              	imu_stop:
 500              	.LFB259:
 501              		.loc 1 98 0
 502              		.cfi_startproc
 503              		@ args = 0, pretend = 0, frame = 0
 504              		@ frame_needed = 0, uses_anonymous_args = 0
 505 0000 10B5     		push	{r4, lr}
 506              		.cfi_def_cfa_offset 8
 507              		.cfi_offset 4, -8
 508              		.cfi_offset 14, -4
 509              		.loc 1 99 0
 510 0002 054C     		ldr	r4, .L26
 511 0004 2068     		ldr	r0, [r4]
 512 0006 FFF7FEFF 		bl	chThdTerminate
 513              	.LVL21:
ARM GAS  /var/folders/gd/b85s80v10ws684278k5gqzcr0000gn/T//cc6EQLhQ.s 			page 10


 514              		.loc 1 100 0
 515 000a 2068     		ldr	r0, [r4]
 516 000c FFF7FEFF 		bl	chThdWait
 517              	.LVL22:
 518              		.loc 1 101 0
 519 0010 0023     		movs	r3, #0
 520 0012 2360     		str	r3, [r4]
 521              		.loc 1 102 0
 522 0014 10BD     		pop	{r4, pc}
 523              	.L27:
 524 0016 00BF     		.align	2
 525              	.L26:
 526 0018 00000000 		.word	.LANCHOR5
 527              		.cfi_endproc
 528              	.LFE259:
 529              		.size	imu_stop, .-imu_stop
 530              		.section	.text.imu_compute_offset,"ax",%progbits
 531              		.align	1
 532              		.p2align 4,,15
 533              		.global	imu_compute_offset
 534              		.syntax unified
 535              		.thumb
 536              		.thumb_func
 537              		.fpu fpv4-sp-d16
 538              		.type	imu_compute_offset, %function
 539              	imu_compute_offset:
 540              	.LFB260:
 541              		.loc 1 104 0
 542              		.cfi_startproc
 543              		@ args = 0, pretend = 0, frame = 8
 544              		@ frame_needed = 0, uses_anonymous_args = 0
 545              	.LVL23:
 546 0000 2DE9F04F 		push	{r4, r5, r6, r7, r8, r9, r10, fp, lr}
 547              		.cfi_def_cfa_offset 36
 548              		.cfi_offset 4, -36
 549              		.cfi_offset 5, -32
 550              		.cfi_offset 6, -28
 551              		.cfi_offset 7, -24
 552              		.cfi_offset 8, -20
 553              		.cfi_offset 9, -16
 554              		.cfi_offset 10, -12
 555              		.cfi_offset 11, -8
 556              		.cfi_offset 14, -4
 557 0004 83B0     		sub	sp, sp, #12
 558              		.cfi_def_cfa_offset 48
 559              	.LBB84:
 560              		.loc 1 115 0
 561 0006 0029     		cmp	r1, #0
 562 0008 47D0     		beq	.L31
 563 000a CDE90010 		strd	r1, r0, [sp]
 564 000e 0025     		movs	r5, #0
 565 0010 264C     		ldr	r4, .L34
 566              	.LBE84:
 567              		.loc 1 112 0
 568 0012 AB46     		mov	fp, r5
 569              		.loc 1 111 0
 570 0014 2F46     		mov	r7, r5
ARM GAS  /var/folders/gd/b85s80v10ws684278k5gqzcr0000gn/T//cc6EQLhQ.s 			page 11


 571              		.loc 1 110 0
 572 0016 A846     		mov	r8, r5
 573              		.loc 1 108 0
 574 0018 A946     		mov	r9, r5
 575              		.loc 1 107 0
 576 001a AA46     		mov	r10, r5
 577              		.loc 1 106 0
 578 001c 2E46     		mov	r6, r5
 579              	.LVL24:
 580              	.L30:
 581              	.LBB85:
 582              		.loc 1 118 0 discriminator 3
 583 001e 5022     		movs	r2, #80
 584 0020 2249     		ldr	r1, .L34
 585 0022 0198     		ldr	r0, [sp, #4]
 586 0024 FFF7FEFF 		bl	messagebus_topic_wait
 587              	.LVL25:
 588              		.loc 1 126 0 discriminator 3
 589 0028 B4F93230 		ldrsh	r3, [r4, #50]
 590              		.loc 1 120 0 discriminator 3
 591 002c B4F928E0 		ldrsh	lr, [r4, #40]
 592              		.loc 1 121 0 discriminator 3
 593 0030 B4F92AC0 		ldrsh	ip, [r4, #42]
 594              		.loc 1 122 0 discriminator 3
 595 0034 B4F92C00 		ldrsh	r0, [r4, #44]
 596              		.loc 1 124 0 discriminator 3
 597 0038 B4F92E10 		ldrsh	r1, [r4, #46]
 598              		.loc 1 125 0 discriminator 3
 599 003c B4F93020 		ldrsh	r2, [r4, #48]
 600              		.loc 1 115 0 discriminator 3
 601 0040 0135     		adds	r5, r5, #1
 602              	.LVL26:
 603              		.loc 1 126 0 discriminator 3
 604 0042 9B44     		add	fp, fp, r3
 605              	.LVL27:
 606              		.loc 1 115 0 discriminator 3
 607 0044 009B     		ldr	r3, [sp]
 608 0046 EDB2     		uxtb	r5, r5
 609 0048 9D42     		cmp	r5, r3
 610              		.loc 1 120 0 discriminator 3
 611 004a 7644     		add	r6, r6, lr
 612              	.LVL28:
 613              		.loc 1 121 0 discriminator 3
 614 004c E244     		add	r10, r10, ip
 615              	.LVL29:
 616              		.loc 1 122 0 discriminator 3
 617 004e 8144     		add	r9, r9, r0
 618              	.LVL30:
 619              		.loc 1 124 0 discriminator 3
 620 0050 8844     		add	r8, r8, r1
 621              	.LVL31:
 622              		.loc 1 125 0 discriminator 3
 623 0052 1744     		add	r7, r7, r2
 624              	.LVL32:
 625              		.loc 1 115 0 discriminator 3
 626 0054 E3D3     		bcc	.L30
 627 0056 1A46     		mov	r2, r3
ARM GAS  /var/folders/gd/b85s80v10ws684278k5gqzcr0000gn/T//cc6EQLhQ.s 			page 12


 628 0058 96FBF3F3 		sdiv	r3, r6, r3
 629 005c 9AFBF2FA 		sdiv	r10, r10, r2
 630              	.LVL33:
 631 0060 99FBF2F9 		sdiv	r9, r9, r2
 632              	.LVL34:
 633 0064 98FBF2F8 		sdiv	r8, r8, r2
 634              	.LVL35:
 635 0068 97FBF2F7 		sdiv	r7, r7, r2
 636              	.LVL36:
 637 006c 9BFBF2F6 		sdiv	r6, fp, r2
 638              	.LVL37:
 639 0070 1BB2     		sxth	r3, r3
 640 0072 0FFA8AFA 		sxth	r10, r10
 641 0076 0FFA89F9 		sxth	r9, r9
 642 007a 0FFA88F8 		sxth	r8, r8
 643 007e 3FB2     		sxth	r7, r7
 644 0080 36B2     		sxth	r6, r6
 645              	.LVL38:
 646              	.L29:
 647              	.LBE85:
 648              		.loc 1 130 0
 649 0082 A386     		strh	r3, [r4, #52]	@ movhi
 650              		.loc 1 131 0
 651 0084 A4F836A0 		strh	r10, [r4, #54]	@ movhi
 652              		.loc 1 132 0
 653 0088 A4F83890 		strh	r9, [r4, #56]	@ movhi
 654              		.loc 1 134 0
 655 008c A4F83A80 		strh	r8, [r4, #58]	@ movhi
 656              		.loc 1 135 0
 657 0090 A787     		strh	r7, [r4, #60]	@ movhi
 658              		.loc 1 136 0
 659 0092 E687     		strh	r6, [r4, #62]	@ movhi
 660              		.loc 1 138 0
 661 0094 03B0     		add	sp, sp, #12
 662              		.cfi_remember_state
 663              		.cfi_def_cfa_offset 36
 664              		@ sp needed
 665 0096 BDE8F08F 		pop	{r4, r5, r6, r7, r8, r9, r10, fp, pc}
 666              	.LVL39:
 667              	.L31:
 668              		.cfi_restore_state
 669              	.LBB86:
 670              		.loc 1 115 0
 671 009a 0E46     		mov	r6, r1
 672 009c 034C     		ldr	r4, .L34
 673 009e 0F46     		mov	r7, r1
 674 00a0 8846     		mov	r8, r1
 675 00a2 8946     		mov	r9, r1
 676 00a4 8A46     		mov	r10, r1
 677 00a6 0B46     		mov	r3, r1
 678 00a8 EBE7     		b	.L29
 679              	.L35:
 680 00aa 00BF     		.align	2
 681              	.L34:
 682 00ac 00000000 		.word	.LANCHOR0
 683              	.LBE86:
 684              		.cfi_endproc
ARM GAS  /var/folders/gd/b85s80v10ws684278k5gqzcr0000gn/T//cc6EQLhQ.s 			page 13


 685              	.LFE260:
 686              		.size	imu_compute_offset, .-imu_compute_offset
 687              		.section	.text.get_acc,"ax",%progbits
 688              		.align	1
 689              		.p2align 4,,15
 690              		.global	get_acc
 691              		.syntax unified
 692              		.thumb
 693              		.thumb_func
 694              		.fpu fpv4-sp-d16
 695              		.type	get_acc, %function
 696              	get_acc:
 697              	.LFB261:
 698              		.loc 1 140 0
 699              		.cfi_startproc
 700              		@ args = 0, pretend = 0, frame = 0
 701              		@ frame_needed = 0, uses_anonymous_args = 0
 702              		@ link register save eliminated.
 703              	.LVL40:
 704              		.loc 1 141 0
 705 0000 0228     		cmp	r0, #2
 706              		.loc 1 142 0
 707 0002 9DBF     		ittte	ls
 708 0004 1430     		addls	r0, r0, #20
 709              	.LVL41:
 710 0006 024B     		ldrls	r3, .L39
 711 0008 33F91000 		ldrshls	r0, [r3, r0, lsl #1]
 712              		.loc 1 144 0
 713 000c 0020     		movhi	r0, #0
 714              		.loc 1 145 0
 715 000e 7047     		bx	lr
 716              	.L40:
 717              		.align	2
 718              	.L39:
 719 0010 00000000 		.word	.LANCHOR0
 720              		.cfi_endproc
 721              	.LFE261:
 722              		.size	get_acc, .-get_acc
 723              		.section	.text.get_acc_all,"ax",%progbits
 724              		.align	1
 725              		.p2align 4,,15
 726              		.global	get_acc_all
 727              		.syntax unified
 728              		.thumb
 729              		.thumb_func
 730              		.fpu fpv4-sp-d16
 731              		.type	get_acc_all, %function
 732              	get_acc_all:
 733              	.LFB262:
 734              		.loc 1 147 0
 735              		.cfi_startproc
 736              		@ args = 0, pretend = 0, frame = 0
 737              		@ frame_needed = 0, uses_anonymous_args = 0
 738              		@ link register save eliminated.
 739              	.LVL42:
 740              		.loc 1 148 0
 741 0000 054B     		ldr	r3, .L42
ARM GAS  /var/folders/gd/b85s80v10ws684278k5gqzcr0000gn/T//cc6EQLhQ.s 			page 14


 742 0002 B3F92820 		ldrsh	r2, [r3, #40]
 743 0006 0280     		strh	r2, [r0]	@ movhi
 744              		.loc 1 149 0
 745 0008 B3F92A20 		ldrsh	r2, [r3, #42]
 746 000c 4280     		strh	r2, [r0, #2]	@ movhi
 747              		.loc 1 150 0
 748 000e B3F92C30 		ldrsh	r3, [r3, #44]
 749 0012 8380     		strh	r3, [r0, #4]	@ movhi
 750              		.loc 1 151 0
 751 0014 7047     		bx	lr
 752              	.L43:
 753 0016 00BF     		.align	2
 754              	.L42:
 755 0018 00000000 		.word	.LANCHOR0
 756              		.cfi_endproc
 757              	.LFE262:
 758              		.size	get_acc_all, .-get_acc_all
 759              		.section	.text.get_acc_offset,"ax",%progbits
 760              		.align	1
 761              		.p2align 4,,15
 762              		.global	get_acc_offset
 763              		.syntax unified
 764              		.thumb
 765              		.thumb_func
 766              		.fpu fpv4-sp-d16
 767              		.type	get_acc_offset, %function
 768              	get_acc_offset:
 769              	.LFB263:
 770              		.loc 1 154 0
 771              		.cfi_startproc
 772              		@ args = 0, pretend = 0, frame = 0
 773              		@ frame_needed = 0, uses_anonymous_args = 0
 774              		@ link register save eliminated.
 775              	.LVL43:
 776              		.loc 1 155 0
 777 0000 0228     		cmp	r0, #2
 778              		.loc 1 156 0
 779 0002 9DBF     		ittte	ls
 780 0004 034B     		ldrls	r3, .L47
 781 0006 03EB4000 		addls	r0, r3, r0, lsl #1
 782              	.LVL44:
 783 000a B0F93400 		ldrshls	r0, [r0, #52]
 784              		.loc 1 158 0
 785 000e 0020     		movhi	r0, #0
 786              		.loc 1 159 0
 787 0010 7047     		bx	lr
 788              	.L48:
 789 0012 00BF     		.align	2
 790              	.L47:
 791 0014 00000000 		.word	.LANCHOR0
 792              		.cfi_endproc
 793              	.LFE263:
 794              		.size	get_acc_offset, .-get_acc_offset
 795              		.section	.text.get_acceleration,"ax",%progbits
 796              		.align	1
 797              		.p2align 4,,15
 798              		.global	get_acceleration
ARM GAS  /var/folders/gd/b85s80v10ws684278k5gqzcr0000gn/T//cc6EQLhQ.s 			page 15


 799              		.syntax unified
 800              		.thumb
 801              		.thumb_func
 802              		.fpu fpv4-sp-d16
 803              		.type	get_acceleration, %function
 804              	get_acceleration:
 805              	.LFB264:
 806              		.loc 1 161 0
 807              		.cfi_startproc
 808              		@ args = 0, pretend = 0, frame = 0
 809              		@ frame_needed = 0, uses_anonymous_args = 0
 810              		@ link register save eliminated.
 811              	.LVL45:
 812              		.loc 1 162 0
 813 0000 0228     		cmp	r0, #2
 814              		.loc 1 163 0
 815 0002 9DBF     		ittte	ls
 816 0004 034B     		ldrls	r3, .L52
 817 0006 03EB8000 		addls	r0, r3, r0, lsl #2
 818              	.LVL46:
 819 000a 90ED000A 		vldrls.32	s0, [r0]
 820              		.loc 1 165 0
 821 000e 9FED020A 		vldrhi.32	s0, .L52+4
 822              		.loc 1 166 0
 823 0012 7047     		bx	lr
 824              	.L53:
 825              		.align	2
 826              	.L52:
 827 0014 00000000 		.word	.LANCHOR0
 828 0018 00000000 		.word	0
 829              		.cfi_endproc
 830              	.LFE264:
 831              		.size	get_acceleration, .-get_acceleration
 832              		.section	.text.get_gyro,"ax",%progbits
 833              		.align	1
 834              		.p2align 4,,15
 835              		.global	get_gyro
 836              		.syntax unified
 837              		.thumb
 838              		.thumb_func
 839              		.fpu fpv4-sp-d16
 840              		.type	get_gyro, %function
 841              	get_gyro:
 842              	.LFB265:
 843              		.loc 1 169 0
 844              		.cfi_startproc
 845              		@ args = 0, pretend = 0, frame = 0
 846              		@ frame_needed = 0, uses_anonymous_args = 0
 847              		@ link register save eliminated.
 848              	.LVL47:
 849              		.loc 1 170 0
 850 0000 0228     		cmp	r0, #2
 851              		.loc 1 171 0
 852 0002 9DBF     		ittte	ls
 853 0004 034B     		ldrls	r3, .L57
 854 0006 03EB4000 		addls	r0, r3, r0, lsl #1
 855              	.LVL48:
ARM GAS  /var/folders/gd/b85s80v10ws684278k5gqzcr0000gn/T//cc6EQLhQ.s 			page 16


 856 000a B0F92E00 		ldrshls	r0, [r0, #46]
 857              		.loc 1 173 0
 858 000e 0020     		movhi	r0, #0
 859              		.loc 1 174 0
 860 0010 7047     		bx	lr
 861              	.L58:
 862 0012 00BF     		.align	2
 863              	.L57:
 864 0014 00000000 		.word	.LANCHOR0
 865              		.cfi_endproc
 866              	.LFE265:
 867              		.size	get_gyro, .-get_gyro
 868              		.section	.text.get_gyro_all,"ax",%progbits
 869              		.align	1
 870              		.p2align 4,,15
 871              		.global	get_gyro_all
 872              		.syntax unified
 873              		.thumb
 874              		.thumb_func
 875              		.fpu fpv4-sp-d16
 876              		.type	get_gyro_all, %function
 877              	get_gyro_all:
 878              	.LFB266:
 879              		.loc 1 176 0
 880              		.cfi_startproc
 881              		@ args = 0, pretend = 0, frame = 0
 882              		@ frame_needed = 0, uses_anonymous_args = 0
 883              		@ link register save eliminated.
 884              	.LVL49:
 885              		.loc 1 177 0
 886 0000 054B     		ldr	r3, .L60
 887 0002 B3F92E20 		ldrsh	r2, [r3, #46]
 888 0006 0280     		strh	r2, [r0]	@ movhi
 889              		.loc 1 178 0
 890 0008 B3F93020 		ldrsh	r2, [r3, #48]
 891 000c 4280     		strh	r2, [r0, #2]	@ movhi
 892              		.loc 1 179 0
 893 000e B3F93230 		ldrsh	r3, [r3, #50]
 894 0012 8380     		strh	r3, [r0, #4]	@ movhi
 895              		.loc 1 180 0
 896 0014 7047     		bx	lr
 897              	.L61:
 898 0016 00BF     		.align	2
 899              	.L60:
 900 0018 00000000 		.word	.LANCHOR0
 901              		.cfi_endproc
 902              	.LFE266:
 903              		.size	get_gyro_all, .-get_gyro_all
 904              		.section	.text.get_gyro_offset,"ax",%progbits
 905              		.align	1
 906              		.p2align 4,,15
 907              		.global	get_gyro_offset
 908              		.syntax unified
 909              		.thumb
 910              		.thumb_func
 911              		.fpu fpv4-sp-d16
 912              		.type	get_gyro_offset, %function
ARM GAS  /var/folders/gd/b85s80v10ws684278k5gqzcr0000gn/T//cc6EQLhQ.s 			page 17


 913              	get_gyro_offset:
 914              	.LFB267:
 915              		.loc 1 182 0
 916              		.cfi_startproc
 917              		@ args = 0, pretend = 0, frame = 0
 918              		@ frame_needed = 0, uses_anonymous_args = 0
 919              		@ link register save eliminated.
 920              	.LVL50:
 921              		.loc 1 183 0
 922 0000 0228     		cmp	r0, #2
 923              		.loc 1 184 0
 924 0002 9DBF     		ittte	ls
 925 0004 034B     		ldrls	r3, .L65
 926 0006 03EB4000 		addls	r0, r3, r0, lsl #1
 927              	.LVL51:
 928 000a B0F93A00 		ldrshls	r0, [r0, #58]
 929              		.loc 1 186 0
 930 000e 0020     		movhi	r0, #0
 931              		.loc 1 187 0
 932 0010 7047     		bx	lr
 933              	.L66:
 934 0012 00BF     		.align	2
 935              	.L65:
 936 0014 00000000 		.word	.LANCHOR0
 937              		.cfi_endproc
 938              	.LFE267:
 939              		.size	get_gyro_offset, .-get_gyro_offset
 940              		.section	.text.get_gyro_rate,"ax",%progbits
 941              		.align	1
 942              		.p2align 4,,15
 943              		.global	get_gyro_rate
 944              		.syntax unified
 945              		.thumb
 946              		.thumb_func
 947              		.fpu fpv4-sp-d16
 948              		.type	get_gyro_rate, %function
 949              	get_gyro_rate:
 950              	.LFB268:
 951              		.loc 1 189 0
 952              		.cfi_startproc
 953              		@ args = 0, pretend = 0, frame = 0
 954              		@ frame_needed = 0, uses_anonymous_args = 0
 955              		@ link register save eliminated.
 956              	.LVL52:
 957              		.loc 1 190 0
 958 0000 0228     		cmp	r0, #2
 959              		.loc 1 191 0
 960 0002 9DBF     		ittte	ls
 961 0004 034B     		ldrls	r3, .L70
 962 0006 03EB8000 		addls	r0, r3, r0, lsl #2
 963              	.LVL53:
 964 000a 90ED030A 		vldrls.32	s0, [r0, #12]
 965              		.loc 1 193 0
 966 000e 9FED020A 		vldrhi.32	s0, .L70+4
 967              		.loc 1 194 0
 968 0012 7047     		bx	lr
 969              	.L71:
ARM GAS  /var/folders/gd/b85s80v10ws684278k5gqzcr0000gn/T//cc6EQLhQ.s 			page 18


 970              		.align	2
 971              	.L70:
 972 0014 00000000 		.word	.LANCHOR0
 973 0018 00000000 		.word	0
 974              		.cfi_endproc
 975              	.LFE268:
 976              		.size	get_gyro_rate, .-get_gyro_rate
 977              		.section	.text.get_temperature,"ax",%progbits
 978              		.align	1
 979              		.p2align 4,,15
 980              		.global	get_temperature
 981              		.syntax unified
 982              		.thumb
 983              		.thumb_func
 984              		.fpu fpv4-sp-d16
 985              		.type	get_temperature, %function
 986              	get_temperature:
 987              	.LFB269:
 988              		.loc 1 196 0
 989              		.cfi_startproc
 990              		@ args = 0, pretend = 0, frame = 0
 991              		@ frame_needed = 0, uses_anonymous_args = 0
 992              		@ link register save eliminated.
 993              		.loc 1 197 0
 994 0000 014B     		ldr	r3, .L73
 995              		.loc 1 198 0
 996 0002 93ED060A 		vldr.32	s0, [r3, #24]
 997 0006 7047     		bx	lr
 998              	.L74:
 999              		.align	2
 1000              	.L73:
 1001 0008 00000000 		.word	.LANCHOR0
 1002              		.cfi_endproc
 1003              	.LFE269:
 1004              		.size	get_temperature, .-get_temperature
 1005              		.section	.bss.imuThd,"aw",%nobits
 1006              		.align	2
 1007              		.set	.LANCHOR5,. + 0
 1008              		.type	imuThd, %object
 1009              		.size	imuThd, 4
 1010              	imuThd:
 1011 0000 00000000 		.space	4
 1012              		.section	.bss.imu_configured,"aw",%nobits
 1013              		.set	.LANCHOR3,. + 0
 1014              		.type	imu_configured, %object
 1015              		.size	imu_configured, 1
 1016              	imu_configured:
 1017 0000 00       		.space	1
 1018              		.section	.bss.imu_reader_thd_wa.10141,"aw",%nobits
 1019              		.align	3
 1020              		.set	.LANCHOR4,. + 0
 1021              		.type	imu_reader_thd_wa.10141, %object
 1022              		.size	imu_reader_thd_wa.10141, 1400
 1023              	imu_reader_thd_wa.10141:
 1024 0000 00000000 		.space	1400
 1024      00000000 
 1024      00000000 
ARM GAS  /var/folders/gd/b85s80v10ws684278k5gqzcr0000gn/T//cc6EQLhQ.s 			page 19


 1024      00000000 
 1024      00000000 
 1025              		.section	.bss.imu_values,"aw",%nobits
 1026              		.align	2
 1027              		.set	.LANCHOR0,. + 0
 1028              		.type	imu_values, %object
 1029              		.size	imu_values, 80
 1030              	imu_values:
 1031 0000 00000000 		.space	80
 1031      00000000 
 1031      00000000 
 1031      00000000 
 1031      00000000 
 1032              		.section	.rodata.__FUNCTION__.10129,"a",%progbits
 1033              		.align	2
 1034              		.set	.LANCHOR1,. + 0
 1035              		.type	__FUNCTION__.10129, %object
 1036              		.size	__FUNCTION__.10129, 15
 1037              	__FUNCTION__.10129:
 1038 0000 696D755F 		.ascii	"imu_reader_thd\000"
 1038      72656164 
 1038      65725F74 
 1038      686400
 1039              		.section	.rodata.__func__.7153,"a",%progbits
 1040              		.align	2
 1041              		.set	.LANCHOR2,. + 0
 1042              		.type	__func__.7153, %object
 1043              		.size	__func__.7153, 12
 1044              	__func__.7153:
 1045 0000 63685379 		.ascii	"chSysUnlock\000"
 1045      73556E6C 
 1045      6F636B00 
 1046              		.section	.rodata.imu_reader_thd.str1.4,"aMS",%progbits,1
 1047              		.align	2
 1048              	.LC0:
 1049 0000 2F696D75 		.ascii	"/imu\000"
 1049      00
 1050              		.text
 1051              	.Letext0:
 1052              		.file 7 "/Applications/Eclipse_e-puck2.app/Contents/Eclipse_e-puck2/Tools/gcc-arm-none-eabi-7-2017
 1053              		.file 8 "/Applications/Eclipse_e-puck2.app/Contents/Eclipse_e-puck2/Tools/gcc-arm-none-eabi-7-2017
 1054              		.file 9 "/Applications/Eclipse_e-puck2.app/Contents/Eclipse_e-puck2/Tools/gcc-arm-none-eabi-7-2017
 1055              		.file 10 "../../lib/ChibiOS/os/rt/ports/ARMCMx/compilers/GCC/chtypes.h"
 1056              		.file 11 "../../lib/ChibiOS/os/rt/include/chsystypes.h"
 1057              		.file 12 "../../lib/ChibiOS/os/rt/include/chschd.h"
 1058              		.file 13 "../../lib/ChibiOS/os/ext/CMSIS/include/core_cm4.h"
 1059              		.file 14 "../../lib/ChibiOS/os/ext/CMSIS/ST/system_stm32f4xx.h"
 1060              		.file 15 "../../lib/ChibiOS/os/ext/CMSIS/ST/stm32f407xx.h"
 1061              		.file 16 "../../lib/ChibiOS/os/rt/ports/ARMCMx/chcore.h"
 1062              		.file 17 "../../lib/ChibiOS/os/rt/ports/ARMCMx/chcore_v7m.h"
 1063              		.file 18 "../../lib/ChibiOS/os/rt/include/chdebug.h"
 1064              		.file 19 "../../lib/ChibiOS/os/rt/include/chtm.h"
 1065              		.file 20 "../../lib/ChibiOS/os/rt/include/chstats.h"
 1066              		.file 21 "../../lib/ChibiOS/os/rt/include/chsem.h"
 1067              		.file 22 "../../lib/ChibiOS/os/rt/include/chmtx.h"
 1068              		.file 23 "../../lib/ChibiOS/os/rt/include/chcond.h"
 1069              		.file 24 "../../lib/ChibiOS/os/rt/include/chevents.h"
ARM GAS  /var/folders/gd/b85s80v10ws684278k5gqzcr0000gn/T//cc6EQLhQ.s 			page 20


 1070              		.file 25 "../../lib/ChibiOS/os/rt/include/chqueues.h"
 1071              		.file 26 "../../lib/ChibiOS/os/hal/ports/STM32/STM32F4xx/stm32_dma.h"
 1072              		.file 27 "../../lib/ChibiOS/os/hal/ports/STM32/LLD/GPIOv2/pal_lld.h"
 1073              		.file 28 "../../lib/ChibiOS/os/hal/include/gpt.h"
 1074              		.file 29 "../../lib/ChibiOS/os/hal/ports/STM32/LLD/TIMv1/gpt_lld.h"
 1075              		.file 30 "../../lib/ChibiOS/os/hal/ports/STM32/LLD/TIMv1/stm32_tim.h"
 1076              		.file 31 "../../lib/ChibiOS/os/hal/include/i2c.h"
 1077              		.file 32 "../../lib/ChibiOS/os/hal/ports/STM32/LLD/I2Cv1/i2c_lld.h"
 1078              		.file 33 "../../lib/ChibiOS/os/hal/include/serial.h"
 1079              		.file 34 "../../lib/ChibiOS/os/hal/ports/STM32/LLD/USARTv1/serial_lld.h"
 1080              		.file 35 "../../lib/ChibiOS/os/hal/include/usb.h"
 1081              		.file 36 "../../lib/ChibiOS/os/hal/ports/STM32/LLD/OTGv1/usb_lld.h"
 1082              		.file 37 "../../lib/ChibiOS/os/hal/ports/STM32/LLD/OTGv1/stm32_otg.h"
 1083              		.file 38 "/Applications/Eclipse_e-puck2.app/Contents/Eclipse_e-puck2/Tools/gcc-arm-none-eabi-7-201
 1084              		.file 39 "/Applications/Eclipse_e-puck2.app/Contents/Eclipse_e-puck2/Tools/gcc-arm-none-eabi-7-201
 1085              		.file 40 "/Applications/Eclipse_e-puck2.app/Contents/Eclipse_e-puck2/Tools/gcc-arm-none-eabi-7-201
 1086              		.file 41 "/Applications/Eclipse_e-puck2.app/Contents/Eclipse_e-puck2/Tools/gcc-arm-none-eabi-7-201
 1087              		.file 42 "/Applications/Eclipse_e-puck2.app/Contents/Eclipse_e-puck2/Tools/gcc-arm-none-eabi-7-201
 1088              		.file 43 "../../lib/msgbus/messagebus.h"
 1089              		.file 44 "./mpu9250.h"
 1090              		.file 45 "./imu.h"