ARM GAS  /var/folders/gd/b85s80v10ws684278k5gqzcr0000gn/T//ccetfp3K.s 			page 1


   1              		.cpu cortex-m4
   2              		.eabi_attribute 27, 1
   3              		.eabi_attribute 28, 1
   4              		.eabi_attribute 20, 1
   5              		.eabi_attribute 21, 1
   6              		.eabi_attribute 23, 3
   7              		.eabi_attribute 24, 1
   8              		.eabi_attribute 25, 1
   9              		.eabi_attribute 26, 1
  10              		.eabi_attribute 30, 2
  11              		.eabi_attribute 34, 1
  12              		.eabi_attribute 18, 4
  13              		.file	"main.c"
  14              		.text
  15              	.Ltext0:
  16              		.cfi_sections	.debug_frame
  17              		.section	.text.ThdBodyLed,"ax",%progbits
  18              		.align	1
  19              		.p2align 4,,15
  20              		.syntax unified
  21              		.thumb
  22              		.thumb_func
  23              		.fpu fpv4-sp-d16
  24              		.type	ThdBodyLed, %function
  25              	ThdBodyLed:
  26              	.LFB261:
  27              		.file 1 "main.c"
  28              		.loc 1 75 0
  29              		.cfi_startproc
  30              		@ Volatile: function does not return.
  31              		@ args = 0, pretend = 0, frame = 0
  32              		@ frame_needed = 0, uses_anonymous_args = 0
  33              	.LVL0:
  34 0000 08B5     		push	{r3, lr}
  35              		.cfi_def_cfa_offset 8
  36              		.cfi_offset 3, -8
  37              		.cfi_offset 14, -4
  38              	.LBB41:
  39              	.LBB42:
  40              		.file 2 "../../lib/ChibiOS/os/rt/include/chregistry.h"
  41              		.loc 2 135 0
  42 0002 074B     		ldr	r3, .L5
  43 0004 074A     		ldr	r2, .L5+4
  44 0006 9B69     		ldr	r3, [r3, #24]
  45              	.LBE42:
  46              	.LBE41:
  47              		.loc 1 81 0
  48 0008 074C     		ldr	r4, .L5+8
  49              	.LBB44:
  50              	.LBB43:
  51              		.loc 2 135 0
  52 000a 9A61     		str	r2, [r3, #24]
  53              	.LVL1:
  54              	.L2:
  55              	.LBE43:
  56              	.LBE44:
  57              		.loc 1 81 0 discriminator 1
ARM GAS  /var/folders/gd/b85s80v10ws684278k5gqzcr0000gn/T//ccetfp3K.s 			page 2


  58 000c 6369     		ldr	r3, [r4, #20]
  59 000e 83F00403 		eor	r3, r3, #4
  60 0012 6361     		str	r3, [r4, #20]
  61              		.loc 1 86 0 discriminator 1
  62 0014 4FF4FA70 		mov	r0, #500
  63 0018 FFF7FEFF 		bl	chThdSleep
  64              	.LVL2:
  65 001c F6E7     		b	.L2
  66              	.L6:
  67 001e 00BF     		.align	2
  68              	.L5:
  69 0020 00000000 		.word	ch
  70 0024 00000000 		.word	.LANCHOR0
  71 0028 00040240 		.word	1073873920
  72              		.cfi_endproc
  73              	.LFE261:
  74              		.size	ThdBodyLed, .-ThdBodyLed
  75              		.section	.text.chprintf.constprop.0,"ax",%progbits
  76              		.align	1
  77              		.p2align 4,,15
  78              		.syntax unified
  79              		.thumb
  80              		.thumb_func
  81              		.fpu fpv4-sp-d16
  82              		.type	chprintf.constprop.0, %function
  83              	chprintf.constprop.0:
  84              	.LFB264:
  85              		.file 3 "../../lib/ChibiOS/os/hal/lib/streams/chprintf.h"
  86              		.loc 3 69 0
  87              		.cfi_startproc
  88              		@ args = 4, pretend = 12, frame = 8
  89              		@ frame_needed = 0, uses_anonymous_args = 1
  90              	.LVL3:
  91 0000 0EB4     		push	{r1, r2, r3}
  92              		.cfi_def_cfa_offset 12
  93              		.cfi_offset 1, -12
  94              		.cfi_offset 2, -8
  95              		.cfi_offset 3, -4
  96 0002 00B5     		push	{lr}
  97              		.cfi_def_cfa_offset 16
  98              		.cfi_offset 14, -16
  99 0004 82B0     		sub	sp, sp, #8
 100              		.cfi_def_cfa_offset 24
 101              		.loc 3 69 0
 102 0006 03AA     		add	r2, sp, #12
 103              		.loc 3 74 0
 104 0008 0548     		ldr	r0, .L9
 105              	.LVL4:
 106              		.loc 3 69 0
 107 000a 52F8041B 		ldr	r1, [r2], #4
 108              		.loc 3 73 0
 109 000e 0192     		str	r2, [sp, #4]
 110              		.loc 3 74 0
 111 0010 FFF7FEFF 		bl	chvprintf
 112              	.LVL5:
 113              		.loc 3 78 0
 114 0014 02B0     		add	sp, sp, #8
ARM GAS  /var/folders/gd/b85s80v10ws684278k5gqzcr0000gn/T//ccetfp3K.s 			page 3


 115              		.cfi_def_cfa_offset 16
 116              		@ sp needed
 117 0016 5DF804EB 		ldr	lr, [sp], #4
 118              		.cfi_restore 14
 119              		.cfi_def_cfa_offset 12
 120 001a 03B0     		add	sp, sp, #12
 121              		.cfi_restore 3
 122              		.cfi_restore 2
 123              		.cfi_restore 1
 124              		.cfi_def_cfa_offset 0
 125 001c 7047     		bx	lr
 126              	.L10:
 127 001e 00BF     		.align	2
 128              	.L9:
 129 0020 00000000 		.word	SD3
 130              		.cfi_endproc
 131              	.LFE264:
 132              		.size	chprintf.constprop.0, .-chprintf.constprop.0
 133              		.section	.text.ThdFrontLed,"ax",%progbits
 134              		.align	1
 135              		.p2align 4,,15
 136              		.syntax unified
 137              		.thumb
 138              		.thumb_func
 139              		.fpu fpv4-sp-d16
 140              		.type	ThdFrontLed, %function
 141              	ThdFrontLed:
 142              	.LFB260:
 143              		.loc 1 60 0
 144              		.cfi_startproc
 145              		@ args = 0, pretend = 0, frame = 0
 146              		@ frame_needed = 0, uses_anonymous_args = 0
 147              	.LVL6:
 148 0000 2DE9F041 		push	{r4, r5, r6, r7, r8, lr}
 149              		.cfi_def_cfa_offset 24
 150              		.cfi_offset 4, -24
 151              		.cfi_offset 5, -20
 152              		.cfi_offset 6, -16
 153              		.cfi_offset 7, -12
 154              		.cfi_offset 8, -8
 155              		.cfi_offset 14, -4
 156              	.LBB61:
 157              	.LBB62:
 158              		.loc 2 135 0
 159 0004 154C     		ldr	r4, .L15
 160 0006 164A     		ldr	r2, .L15+4
 161 0008 A369     		ldr	r3, [r4, #24]
 162              	.LBE62:
 163              	.LBE61:
 164              	.LBB64:
 165              	.LBB65:
 166              	.LBB66:
 167              	.LBB67:
 168              		.file 4 "../../lib/ChibiOS/os/rt/include/chsys.h"
 169              		.loc 4 367 0
 170 000a DFF85C80 		ldr	r8, .L15+12
 171              	.LBE67:
ARM GAS  /var/folders/gd/b85s80v10ws684278k5gqzcr0000gn/T//ccetfp3K.s 			page 4


 172              	.LBE66:
 173              	.LBE65:
 174              	.LBE64:
 175              		.loc 1 69 0
 176 000e 154E     		ldr	r6, .L15+8
 177              	.LBB81:
 178              	.LBB63:
 179              		.loc 2 135 0
 180 0010 9A61     		str	r2, [r3, #24]
 181              	.LBE63:
 182              	.LBE81:
 183              	.LBB82:
 184              	.LBB80:
 185              	.LBB72:
 186              	.LBB73:
 187              	.LBB74:
 188              	.LBB75:
 189              	.LBB76:
 190              		.file 5 "../../lib/ChibiOS/os/ext/CMSIS/include/core_cmFunc.h"
 191              		.loc 5 546 0
 192 0012 2027     		movs	r7, #32
 193              	.LVL7:
 194              	.L13:
 195              		.loc 5 546 0 is_stmt 0 discriminator 1
 196              		.syntax unified
 197              	@ 546 "../../lib/ChibiOS/os/ext/CMSIS/include/core_cmFunc.h" 1
 198 0014 87F31188 		MSR basepri, r7
 199              	@ 0 "" 2
 200              	.LVL8:
 201              		.thumb
 202              		.syntax unified
 203              	.LBE76:
 204              	.LBE75:
 205              	.LBE74:
 206              		.loc 4 349 0 is_stmt 1 discriminator 1
 207 0018 FFF7FEFF 		bl	_stats_start_measure_crit_thd
 208              	.LVL9:
 209              		.loc 4 350 0 discriminator 1
 210 001c FFF7FEFF 		bl	_dbg_check_lock
 211              	.LVL10:
 212              	.LBE73:
 213              	.LBE72:
 214              	.LBB77:
 215              	.LBB78:
 216              		.file 6 "../../lib/ChibiOS/os/rt/include/chvt.h"
 217              		.loc 6 231 0 discriminator 1
 218 0020 A56A     		ldr	r5, [r4, #40]
 219              	.LBE78:
 220              	.LBE77:
 221              	.LBB79:
 222              	.LBB71:
 223              		.loc 4 360 0 discriminator 1
 224 0022 FFF7FEFF 		bl	_dbg_check_unlock
 225              	.LVL11:
 226              		.loc 4 361 0 discriminator 1
 227 0026 FFF7FEFF 		bl	_stats_stop_measure_crit_thd
 228              	.LVL12:
ARM GAS  /var/folders/gd/b85s80v10ws684278k5gqzcr0000gn/T//ccetfp3K.s 			page 5


 229              		.loc 4 367 0 discriminator 1
 230 002a 2368     		ldr	r3, [r4]
 231 002c A342     		cmp	r3, r4
 232 002e 07D0     		beq	.L12
 233              		.loc 4 367 0 is_stmt 0
 234 0030 A269     		ldr	r2, [r4, #24]
 235 0032 9B68     		ldr	r3, [r3, #8]
 236 0034 9268     		ldr	r2, [r2, #8]
 237 0036 9A42     		cmp	r2, r3
 238 0038 02D2     		bcs	.L12
 239 003a 4046     		mov	r0, r8
 240 003c FFF7FEFF 		bl	chSysHalt
 241              	.LVL13:
 242              	.L12:
 243              	.LBB68:
 244              	.LBB69:
 245              	.LBB70:
 246              		.loc 5 546 0 is_stmt 1
 247 0040 0023     		movs	r3, #0
 248              		.syntax unified
 249              	@ 546 "../../lib/ChibiOS/os/ext/CMSIS/include/core_cmFunc.h" 1
 250 0042 83F31188 		MSR basepri, r3
 251              	@ 0 "" 2
 252              	.LVL14:
 253              		.thumb
 254              		.syntax unified
 255              	.LBE70:
 256              	.LBE69:
 257              	.LBE68:
 258              	.LBE71:
 259              	.LBE79:
 260              	.LBE80:
 261              	.LBE82:
 262              		.loc 1 69 0
 263 0046 7369     		ldr	r3, [r6, #20]
 264 0048 83F48043 		eor	r3, r3, #16384
 265 004c 7361     		str	r3, [r6, #20]
 266              		.loc 1 70 0
 267 004e 05F10A01 		add	r1, r5, #10
 268 0052 2846     		mov	r0, r5
 269 0054 FFF7FEFF 		bl	chThdSleepUntilWindowed
 270              	.LVL15:
 271 0058 DCE7     		b	.L13
 272              	.L16:
 273 005a 00BF     		.align	2
 274              	.L15:
 275 005c 00000000 		.word	ch
 276 0060 00000000 		.word	.LANCHOR1
 277 0064 000C0240 		.word	1073875968
 278 0068 00000000 		.word	.LANCHOR2
 279              		.cfi_endproc
 280              	.LFE260:
 281              		.size	ThdFrontLed, .-ThdFrontLed
 282              		.section	.text.panic_handler,"ax",%progbits
 283              		.align	1
 284              		.p2align 4,,15
 285              		.global	panic_handler
ARM GAS  /var/folders/gd/b85s80v10ws684278k5gqzcr0000gn/T//ccetfp3K.s 			page 6


 286              		.syntax unified
 287              		.thumb
 288              		.thumb_func
 289              		.fpu fpv4-sp-d16
 290              		.type	panic_handler, %function
 291              	panic_handler:
 292              	.LFB257:
 293              		.loc 1 16 0
 294              		.cfi_startproc
 295              		@ Volatile: function does not return.
 296              		@ args = 0, pretend = 0, frame = 0
 297              		@ frame_needed = 0, uses_anonymous_args = 0
 298              		@ link register save eliminated.
 299              	.LVL16:
 300              		.loc 1 19 0
 301 0000 084B     		ldr	r3, .L19
 302              		.loc 1 24 0
 303 0002 094A     		ldr	r2, .L19+4
 304              		.loc 1 19 0
 305 0004 2020     		movs	r0, #32
 306              	.LVL17:
 307              		.loc 1 20 0
 308 0006 4021     		movs	r1, #64
 309              		.loc 1 19 0
 310 0008 5883     		strh	r0, [r3, #26]	@ movhi
 311              		.loc 1 21 0
 312 000a 4FF48065 		mov	r5, #1024
 313              		.loc 1 20 0
 314 000e 5983     		strh	r1, [r3, #26]	@ movhi
 315              		.loc 1 22 0
 316 0010 4FF40064 		mov	r4, #2048
 317              		.loc 1 23 0
 318 0014 4FF48040 		mov	r0, #16384
 319              		.loc 1 24 0
 320 0018 0421     		movs	r1, #4
 321              		.loc 1 21 0
 322 001a 5D83     		strh	r5, [r3, #26]	@ movhi
 323              		.loc 1 22 0
 324 001c 5C83     		strh	r4, [r3, #26]	@ movhi
 325              		.loc 1 23 0
 326 001e 5883     		strh	r0, [r3, #26]	@ movhi
 327              		.loc 1 24 0
 328 0020 5183     		strh	r1, [r2, #26]	@ movhi
 329              	.L18:
 330 0022 FEE7     		b	.L18
 331              	.L20:
 332              		.align	2
 333              	.L19:
 334 0024 000C0240 		.word	1073875968
 335 0028 00040240 		.word	1073873920
 336              		.cfi_endproc
 337              	.LFE257:
 338              		.size	panic_handler, .-panic_handler
 339              		.section	.text.show_gravity,"ax",%progbits
 340              		.align	1
 341              		.p2align 4,,15
 342              		.global	show_gravity
ARM GAS  /var/folders/gd/b85s80v10ws684278k5gqzcr0000gn/T//ccetfp3K.s 			page 7


 343              		.syntax unified
 344              		.thumb
 345              		.thumb_func
 346              		.fpu fpv4-sp-d16
 347              		.type	show_gravity, %function
 348              	show_gravity:
 349              	.LFB262:
 350              		.loc 1 110 0
 351              		.cfi_startproc
 352              		@ args = 0, pretend = 0, frame = 8
 353              		@ frame_needed = 0, uses_anonymous_args = 0
 354              	.LVL18:
 355 0000 10B5     		push	{r4, lr}
 356              		.cfi_def_cfa_offset 8
 357              		.cfi_offset 4, -8
 358              		.cfi_offset 14, -4
 359 0002 82B0     		sub	sp, sp, #8
 360              		.cfi_def_cfa_offset 16
 361              		.loc 1 114 0
 362 0004 0024     		movs	r4, #0
 363 0006 ADF80640 		strh	r4, [sp, #6]	@ movhi
 364              	.LVL19:
 365              	.LBB93:
 366              	.LBB94:
 367              	.LBB95:
 368              	.LBB96:
 369              	.LBB97:
 370              		.loc 5 546 0
 371 000a 2023     		movs	r3, #32
 372              		.syntax unified
 373              	@ 546 "../../lib/ChibiOS/os/ext/CMSIS/include/core_cmFunc.h" 1
 374 000c 83F31188 		MSR basepri, r3
 375              	@ 0 "" 2
 376              	.LVL20:
 377              		.thumb
 378              		.syntax unified
 379              	.LBE97:
 380              	.LBE96:
 381              	.LBE95:
 382              		.loc 4 349 0
 383 0010 FFF7FEFF 		bl	_stats_start_measure_crit_thd
 384              	.LVL21:
 385              		.loc 4 350 0
 386 0014 FFF7FEFF 		bl	_dbg_check_lock
 387              	.LVL22:
 388              	.LBE94:
 389              	.LBE93:
 390              		.loc 1 123 0
 391 0018 104B     		ldr	r3, .L25
 392 001a DB68     		ldr	r3, [r3, #12]
 393 001c 5C62     		str	r4, [r3, #36]
 394              		.loc 1 130 0
 395 001e 5B6A     		ldr	r3, [r3, #36]
 396 0020 9BB2     		uxth	r3, r3
 397 0022 ADF80630 		strh	r3, [sp, #6]	@ movhi
 398              	.LBB98:
 399              	.LBB99:
ARM GAS  /var/folders/gd/b85s80v10ws684278k5gqzcr0000gn/T//ccetfp3K.s 			page 8


 400              		.loc 4 360 0
 401 0026 FFF7FEFF 		bl	_dbg_check_unlock
 402              	.LVL23:
 403              		.loc 4 361 0
 404 002a FFF7FEFF 		bl	_stats_stop_measure_crit_thd
 405              	.LVL24:
 406              		.loc 4 367 0
 407 002e 0C4B     		ldr	r3, .L25+4
 408 0030 1A68     		ldr	r2, [r3]
 409 0032 9A42     		cmp	r2, r3
 410 0034 04D0     		beq	.L22
 411 0036 9969     		ldr	r1, [r3, #24]
 412 0038 9368     		ldr	r3, [r2, #8]
 413 003a 8A68     		ldr	r2, [r1, #8]
 414 003c 9A42     		cmp	r2, r3
 415 003e 04D3     		bcc	.L24
 416              	.L22:
 417              	.LVL25:
 418              	.LBB100:
 419              	.LBB101:
 420              	.LBB102:
 421              		.loc 5 546 0
 422 0040 0023     		movs	r3, #0
 423              		.syntax unified
 424              	@ 546 "../../lib/ChibiOS/os/ext/CMSIS/include/core_cmFunc.h" 1
 425 0042 83F31188 		MSR basepri, r3
 426              	@ 0 "" 2
 427              	.LVL26:
 428              		.thumb
 429              		.syntax unified
 430              	.LBE102:
 431              	.LBE101:
 432              	.LBE100:
 433              	.LBE99:
 434              	.LBE98:
 435              		.loc 1 137 0
 436 0046 02B0     		add	sp, sp, #8
 437              		.cfi_remember_state
 438              		.cfi_def_cfa_offset 8
 439              		@ sp needed
 440 0048 10BD     		pop	{r4, pc}
 441              	.L24:
 442              		.cfi_restore_state
 443              	.LBB107:
 444              	.LBB106:
 445              		.loc 4 367 0
 446 004a 0648     		ldr	r0, .L25+8
 447 004c FFF7FEFF 		bl	chSysHalt
 448              	.LVL27:
 449              	.LBB105:
 450              	.LBB104:
 451              	.LBB103:
 452              		.loc 5 546 0
 453 0050 0023     		movs	r3, #0
 454              		.syntax unified
 455              	@ 546 "../../lib/ChibiOS/os/ext/CMSIS/include/core_cmFunc.h" 1
 456 0052 83F31188 		MSR basepri, r3
ARM GAS  /var/folders/gd/b85s80v10ws684278k5gqzcr0000gn/T//ccetfp3K.s 			page 9


 457              	@ 0 "" 2
 458              	.LVL28:
 459              		.thumb
 460              		.syntax unified
 461              	.LBE103:
 462              	.LBE104:
 463              	.LBE105:
 464              	.LBE106:
 465              	.LBE107:
 466              		.loc 1 137 0
 467 0056 02B0     		add	sp, sp, #8
 468              		.cfi_def_cfa_offset 8
 469              		@ sp needed
 470 0058 10BD     		pop	{r4, pc}
 471              	.L26:
 472 005a 00BF     		.align	2
 473              	.L25:
 474 005c 00000000 		.word	GPTD11
 475 0060 00000000 		.word	ch
 476 0064 00000000 		.word	.LANCHOR2
 477              		.cfi_endproc
 478              	.LFE262:
 479              		.size	show_gravity, .-show_gravity
 480              		.global	__aeabi_f2d
 481              		.section	.text.startup.main,"ax",%progbits
 482              		.align	1
 483              		.p2align 4,,15
 484              		.global	main
 485              		.syntax unified
 486              		.thumb
 487              		.thumb_func
 488              		.fpu fpv4-sp-d16
 489              		.type	main, %function
 490              	main:
 491              	.LFB263:
 492              		.loc 1 140 0
 493              		.cfi_startproc
 494              		@ args = 0, pretend = 0, frame = 80
 495              		@ frame_needed = 0, uses_anonymous_args = 0
 496 0000 2DE9F04F 		push	{r4, r5, r6, r7, r8, r9, r10, fp, lr}
 497              		.cfi_def_cfa_offset 36
 498              		.cfi_offset 4, -36
 499              		.cfi_offset 5, -32
 500              		.cfi_offset 6, -28
 501              		.cfi_offset 7, -24
 502              		.cfi_offset 8, -20
 503              		.cfi_offset 9, -16
 504              		.cfi_offset 10, -12
 505              		.cfi_offset 11, -8
 506              		.cfi_offset 14, -4
 507 0004 A1B0     		sub	sp, sp, #132
 508              		.cfi_def_cfa_offset 168
 509              		.loc 1 142 0
 510 0006 FFF7FEFF 		bl	halInit
 511              	.LVL29:
 512              		.loc 1 143 0
 513 000a FFF7FEFF 		bl	chSysInit
ARM GAS  /var/folders/gd/b85s80v10ws684278k5gqzcr0000gn/T//ccetfp3K.s 			page 10


 514              	.LVL30:
 515              	.LBB112:
 516              	.LBB113:
 517              		.loc 1 40 0
 518 000e 5649     		ldr	r1, .L30
 519 0010 5648     		ldr	r0, .L30+4
 520              	.LBE113:
 521              	.LBE112:
 522              		.loc 1 173 0
 523 0012 574D     		ldr	r5, .L30+8
 524              		.loc 1 187 0
 525 0014 DFF88491 		ldr	r9, .L30+52
 526              	.LBB115:
 527              	.LBB114:
 528              		.loc 1 40 0
 529 0018 FFF7FEFF 		bl	sdStart
 530              	.LVL31:
 531              	.LBE114:
 532              	.LBE115:
 533              	.LBB116:
 534              	.LBB117:
 535              		.loc 1 54 0
 536 001c 5549     		ldr	r1, .L30+12
 537 001e 5648     		ldr	r0, .L30+16
 538 0020 FFF7FEFF 		bl	gptStart
 539              	.LVL32:
 540              		.loc 1 56 0
 541 0024 4FF6FF71 		movw	r1, #65535
 542 0028 5348     		ldr	r0, .L30+16
 543 002a FFF7FEFF 		bl	gptStartContinuous
 544              	.LVL33:
 545              	.LBE117:
 546              	.LBE116:
 547              		.loc 1 156 0
 548 002e 0024     		movs	r4, #0
 549              		.loc 1 146 0
 550 0030 FFF7FEFF 		bl	i2c_start
 551              	.LVL34:
 552              		.loc 1 147 0
 553 0034 FFF7FEFF 		bl	imu_start
 554              	.LVL35:
 555              		.loc 1 150 0
 556 0038 504A     		ldr	r2, .L30+20
 557 003a 5149     		ldr	r1, .L30+24
 558 003c 5148     		ldr	r0, .L30+28
 559 003e FFF7FEFF 		bl	messagebus_init
 560              	.LVL36:
 561              		.loc 1 156 0
 562 0042 0094     		str	r4, [sp]
 563 0044 504B     		ldr	r3, .L30+32
 564 0046 5148     		ldr	r0, .L30+36
 565 0048 4022     		movs	r2, #64
 566 004a 4FF4FC71 		mov	r1, #504
 567 004e FFF7FEFF 		bl	chThdCreateStatic
 568              	.LVL37:
 569              		.loc 1 157 0
 570 0052 4F4B     		ldr	r3, .L30+40
ARM GAS  /var/folders/gd/b85s80v10ws684278k5gqzcr0000gn/T//ccetfp3K.s 			page 11


 571 0054 0094     		str	r4, [sp]
 572 0056 4022     		movs	r2, #64
 573 0058 4FF4FC71 		mov	r1, #504
 574 005c 4D48     		ldr	r0, .L30+44
 575              		.loc 1 173 0
 576 005e 434C     		ldr	r4, .L30+4
 577              		.loc 1 157 0
 578 0060 FFF7FEFF 		bl	chThdCreateStatic
 579              	.LVL38:
 580              		.loc 1 160 0
 581 0064 4220     		movs	r0, #66
 582 0066 FFF7FEFF 		bl	chThdSetPriority
 583              	.LVL39:
 584              		.loc 1 162 0
 585 006a 4B49     		ldr	r1, .L30+48
 586 006c 4548     		ldr	r0, .L30+28
 587 006e FFF7FEFF 		bl	messagebus_find_topic_blocking
 588              	.LVL40:
 589 0072 8046     		mov	r8, r0
 590              	.LVL41:
 591              		.loc 1 166 0
 592 0074 4FF4FA60 		mov	r0, #2000
 593              	.LVL42:
 594 0078 FFF7FEFF 		bl	chThdSleep
 595              	.LVL43:
 596              		.loc 1 167 0
 597 007c 4046     		mov	r0, r8
 598 007e C821     		movs	r1, #200
 599 0080 FFF7FEFF 		bl	imu_compute_offset
 600              	.LVL44:
 601              	.L28:
 602              		.loc 1 171 0 discriminator 1
 603 0084 0CA9     		add	r1, sp, #48
 604 0086 4046     		mov	r0, r8
 605 0088 5022     		movs	r2, #80
 606 008a FFF7FEFF 		bl	messagebus_topic_wait
 607              	.LVL45:
 608              		.loc 1 173 0 discriminator 1
 609 008e BDF96270 		ldrsh	r7, [sp, #98]
 610 0092 BDF96060 		ldrsh	r6, [sp, #96]
 611 0096 BDF95E00 		ldrsh	r0, [sp, #94]
 612 009a BDF95C10 		ldrsh	r1, [sp, #92]
 613 009e BDF95A30 		ldrsh	r3, [sp, #90]
 614 00a2 BDF95820 		ldrsh	r2, [sp, #88]
 615 00a6 CDE90267 		strd	r6, r7, [sp, #8]
 616 00aa CDE90010 		strd	r1, r0, [sp]
 617 00ae 2946     		mov	r1, r5
 618 00b0 2046     		mov	r0, r4
 619 00b2 FFF7FEFF 		bl	chprintf.constprop.0
 620              	.LVL46:
 621              		.loc 1 184 0 discriminator 1
 622 00b6 BDF962B0 		ldrsh	fp, [sp, #98]
 623 00ba BDF96E20 		ldrsh	r2, [sp, #110]
 624              		.loc 1 183 0 discriminator 1
 625 00be BDF96C70 		ldrsh	r7, [sp, #108]
 626 00c2 BDF96060 		ldrsh	r6, [sp, #96]
 627              		.loc 1 181 0 discriminator 1
ARM GAS  /var/folders/gd/b85s80v10ws684278k5gqzcr0000gn/T//ccetfp3K.s 			page 12


 628 00c6 BDF968E0 		ldrsh	lr, [sp, #104]
 629              		.loc 1 182 0 discriminator 1
 630 00ca BDF95E00 		ldrsh	r0, [sp, #94]
 631 00ce BDF96AA0 		ldrsh	r10, [sp, #106]
 632              		.loc 1 181 0 discriminator 1
 633 00d2 BDF95C10 		ldrsh	r1, [sp, #92]
 634              		.loc 1 180 0 discriminator 1
 635 00d6 BDF95AC0 		ldrsh	ip, [sp, #90]
 636 00da BDF96630 		ldrsh	r3, [sp, #102]
 637              		.loc 1 178 0 discriminator 1
 638 00de ABEB0202 		sub	r2, fp, r2
 639 00e2 F61B     		subs	r6, r6, r7
 640 00e4 0392     		str	r2, [sp, #12]
 641              		.loc 1 179 0 discriminator 1
 642 00e6 BDF95870 		ldrsh	r7, [sp, #88]
 643 00ea BDF96420 		ldrsh	r2, [sp, #100]
 644              		.loc 1 178 0 discriminator 1
 645 00ee 0296     		str	r6, [sp, #8]
 646 00f0 A1EB0E01 		sub	r1, r1, lr
 647 00f4 A0EB0A00 		sub	r0, r0, r10
 648 00f8 ACEB0303 		sub	r3, ip, r3
 649 00fc BA1A     		subs	r2, r7, r2
 650 00fe CDE90010 		strd	r1, r0, [sp]
 651 0102 2946     		mov	r1, r5
 652 0104 2046     		mov	r0, r4
 653 0106 FFF7FEFF 		bl	chprintf.constprop.0
 654              	.LVL47:
 655              		.loc 1 187 0 discriminator 1
 656 010a 0C98     		ldr	r0, [sp, #48]	@ float
 657 010c FFF7FEFF 		bl	__aeabi_f2d
 658              	.LVL48:
 659 0110 9DF87C30 		ldrb	r3, [sp, #124]	@ zero_extendqisi2
 660 0114 0A93     		str	r3, [sp, #40]
 661 0116 0646     		mov	r6, r0
 662 0118 1198     		ldr	r0, [sp, #68]	@ float
 663 011a 0F46     		mov	r7, r1
 664 011c FFF7FEFF 		bl	__aeabi_f2d
 665              	.LVL49:
 666 0120 CDE90801 		strd	r0, [sp, #32]
 667 0124 1098     		ldr	r0, [sp, #64]	@ float
 668 0126 FFF7FEFF 		bl	__aeabi_f2d
 669              	.LVL50:
 670 012a CDE90601 		strd	r0, [sp, #24]
 671 012e 0F98     		ldr	r0, [sp, #60]	@ float
 672 0130 FFF7FEFF 		bl	__aeabi_f2d
 673              	.LVL51:
 674 0134 CDE90401 		strd	r0, [sp, #16]
 675 0138 0E98     		ldr	r0, [sp, #56]	@ float
 676 013a FFF7FEFF 		bl	__aeabi_f2d
 677              	.LVL52:
 678 013e CDE90201 		strd	r0, [sp, #8]
 679 0142 0D98     		ldr	r0, [sp, #52]	@ float
 680 0144 FFF7FEFF 		bl	__aeabi_f2d
 681              	.LVL53:
 682 0148 3246     		mov	r2, r6
 683 014a CDE90001 		strd	r0, [sp]
 684 014e 3B46     		mov	r3, r7
ARM GAS  /var/folders/gd/b85s80v10ws684278k5gqzcr0000gn/T//ccetfp3K.s 			page 13


 685 0150 4946     		mov	r1, r9
 686 0152 2046     		mov	r0, r4
 687 0154 FFF7FEFF 		bl	chprintf.constprop.0
 688              	.LVL54:
 689              		.loc 1 192 0 discriminator 1
 690 0158 0CA8     		add	r0, sp, #48
 691 015a FFF7FEFF 		bl	show_gravity
 692              	.LVL55:
 693              		.loc 1 193 0 discriminator 1
 694 015e 6420     		movs	r0, #100
 695 0160 FFF7FEFF 		bl	chThdSleep
 696              	.LVL56:
 697 0164 8EE7     		b	.L28
 698              	.L31:
 699 0166 00BF     		.align	2
 700              	.L30:
 701 0168 00000000 		.word	.LANCHOR3
 702 016c 00000000 		.word	SD3
 703 0170 08000000 		.word	.LC1
 704 0174 00000000 		.word	.LANCHOR4
 705 0178 00000000 		.word	GPTD11
 706 017c 00000000 		.word	.LANCHOR5
 707 0180 00000000 		.word	.LANCHOR6
 708 0184 00000000 		.word	.LANCHOR7
 709 0188 00000000 		.word	ThdFrontLed
 710 018c 00000000 		.word	.LANCHOR8
 711 0190 00000000 		.word	ThdBodyLed
 712 0194 00000000 		.word	.LANCHOR9
 713 0198 00000000 		.word	.LC0
 714 019c 3C000000 		.word	.LC2
 715              		.cfi_endproc
 716              	.LFE263:
 717              		.size	main, .-main
 718              		.global	bus_condvar
 719              		.global	bus_lock
 720              		.global	bus
 721              		.section	.bss.bus,"aw",%nobits
 722              		.align	2
 723              		.set	.LANCHOR7,. + 0
 724              		.type	bus, %object
 725              		.size	bus, 12
 726              	bus:
 727 0000 00000000 		.space	12
 727      00000000 
 727      00000000 
 728              		.section	.bss.waThdBodyLed,"aw",%nobits
 729              		.align	3
 730              		.set	.LANCHOR9,. + 0
 731              		.type	waThdBodyLed, %object
 732              		.size	waThdBodyLed, 504
 733              	waThdBodyLed:
 734 0000 00000000 		.space	504
 734      00000000 
 734      00000000 
 734      00000000 
 734      00000000 
 735              		.section	.bss.waThdFrontLed,"aw",%nobits
ARM GAS  /var/folders/gd/b85s80v10ws684278k5gqzcr0000gn/T//ccetfp3K.s 			page 14


 736              		.align	3
 737              		.set	.LANCHOR8,. + 0
 738              		.type	waThdFrontLed, %object
 739              		.size	waThdFrontLed, 504
 740              	waThdFrontLed:
 741 0000 00000000 		.space	504
 741      00000000 
 741      00000000 
 741      00000000 
 741      00000000 
 742              		.section	.data.bus_condvar,"aw",%progbits
 743              		.align	2
 744              		.set	.LANCHOR5,. + 0
 745              		.type	bus_condvar, %object
 746              		.size	bus_condvar, 8
 747              	bus_condvar:
 748 0000 00000000 		.word	bus_condvar
 749 0004 00000000 		.word	bus_condvar
 750              		.section	.data.bus_lock,"aw",%progbits
 751              		.align	2
 752              		.set	.LANCHOR6,. + 0
 753              		.type	bus_lock, %object
 754              		.size	bus_lock, 20
 755              	bus_lock:
 756 0000 00000000 		.word	bus_lock
 757 0004 00000000 		.word	bus_lock
 758 0008 00000000 		.word	0
 759 000c 00000000 		.word	0
 760 0010 00000000 		.word	0
 761              		.section	.data.ser_cfg.10164,"aw",%progbits
 762              		.align	2
 763              		.set	.LANCHOR3,. + 0
 764              		.type	ser_cfg.10164, %object
 765              		.size	ser_cfg.10164, 12
 766              	ser_cfg.10164:
 767 0000 00C20100 		.word	115200
 768 0004 0000     		.short	0
 769 0006 0000     		.short	0
 770 0008 0000     		.short	0
 771 000a 0000     		.space	2
 772              		.section	.rodata.__FUNCTION__.10173,"a",%progbits
 773              		.align	2
 774              		.set	.LANCHOR1,. + 0
 775              		.type	__FUNCTION__.10173, %object
 776              		.size	__FUNCTION__.10173, 12
 777              	__FUNCTION__.10173:
 778 0000 54686446 		.ascii	"ThdFrontLed\000"
 778      726F6E74 
 778      4C656400 
 779              		.section	.rodata.__FUNCTION__.10180,"a",%progbits
 780              		.align	2
 781              		.set	.LANCHOR0,. + 0
 782              		.type	__FUNCTION__.10180, %object
 783              		.size	__FUNCTION__.10180, 11
 784              	__FUNCTION__.10180:
 785 0000 54686442 		.ascii	"ThdBodyLed\000"
 785      6F64794C 
ARM GAS  /var/folders/gd/b85s80v10ws684278k5gqzcr0000gn/T//ccetfp3K.s 			page 15


 785      656400
 786              		.section	.rodata.__func__.7153,"a",%progbits
 787              		.align	2
 788              		.set	.LANCHOR2,. + 0
 789              		.type	__func__.7153, %object
 790              		.size	__func__.7153, 12
 791              	__func__.7153:
 792 0000 63685379 		.ascii	"chSysUnlock\000"
 792      73556E6C 
 792      6F636B00 
 793              		.section	.rodata.gpt11cfg.10168,"a",%progbits
 794              		.align	2
 795              		.set	.LANCHOR4,. + 0
 796              		.type	gpt11cfg.10168, %object
 797              		.size	gpt11cfg.10168, 16
 798              	gpt11cfg.10168:
 799 0000 40420F00 		.word	1000000
 800 0004 00000000 		.word	0
 801 0008 00000000 		.word	0
 802 000c 00000000 		.word	0
 803              		.section	.rodata.main.str1.4,"aMS",%progbits,1
 804              		.align	2
 805              	.LC0:
 806 0000 2F696D75 		.ascii	"/imu\000"
 806      00
 807 0005 000000   		.space	3
 808              	.LC1:
 809 0008 2541783D 		.ascii	"%Ax=%-7d Ay=%-7d Az=%-7d Gx=%-7d Gy=%-7d Gz=%-7d\015"
 809      252D3764 
 809      2041793D 
 809      252D3764 
 809      20417A3D 
 810 0039 0A00     		.ascii	"\012\000"
 811 003b 00       		.space	1
 812              	.LC2:
 813 003c 2541783D 		.ascii	"%Ax=%.2f Ay=%.2f Az=%.2f Gx=%.2f Gy=%.2f Gz=%.2f (%"
 813      252E3266 
 813      2041793D 
 813      252E3266 
 813      20417A3D 
 814 006f 78290D0A 		.ascii	"x)\015\012\012\000"
 814      0A00
 815              		.text
 816              	.Letext0:
 817              		.file 7 "/Applications/Eclipse_e-puck2.app/Contents/Eclipse_e-puck2/Tools/gcc-arm-none-eabi-7-2017
 818              		.file 8 "/Applications/Eclipse_e-puck2.app/Contents/Eclipse_e-puck2/Tools/gcc-arm-none-eabi-7-2017
 819              		.file 9 "/Applications/Eclipse_e-puck2.app/Contents/Eclipse_e-puck2/Tools/gcc-arm-none-eabi-7-2017
 820              		.file 10 "../../lib/ChibiOS/os/rt/ports/ARMCMx/compilers/GCC/chtypes.h"
 821              		.file 11 "../../lib/ChibiOS/os/rt/include/chsystypes.h"
 822              		.file 12 "../../lib/ChibiOS/os/rt/include/chschd.h"
 823              		.file 13 "../../lib/ChibiOS/os/ext/CMSIS/include/core_cm4.h"
 824              		.file 14 "../../lib/ChibiOS/os/ext/CMSIS/ST/system_stm32f4xx.h"
 825              		.file 15 "../../lib/ChibiOS/os/ext/CMSIS/ST/stm32f407xx.h"
 826              		.file 16 "../../lib/ChibiOS/os/rt/ports/ARMCMx/chcore.h"
 827              		.file 17 "../../lib/ChibiOS/os/rt/ports/ARMCMx/chcore_v7m.h"
 828              		.file 18 "../../lib/ChibiOS/os/rt/include/chdebug.h"
 829              		.file 19 "../../lib/ChibiOS/os/rt/include/chtm.h"
ARM GAS  /var/folders/gd/b85s80v10ws684278k5gqzcr0000gn/T//ccetfp3K.s 			page 16


 830              		.file 20 "../../lib/ChibiOS/os/rt/include/chstats.h"
 831              		.file 21 "../../lib/ChibiOS/os/rt/include/chsem.h"
 832              		.file 22 "../../lib/ChibiOS/os/rt/include/chmtx.h"
 833              		.file 23 "../../lib/ChibiOS/os/rt/include/chcond.h"
 834              		.file 24 "../../lib/ChibiOS/os/rt/include/chevents.h"
 835              		.file 25 "../../lib/ChibiOS/os/rt/include/chqueues.h"
 836              		.file 26 "../../lib/ChibiOS/os/rt/include/chstreams.h"
 837              		.file 27 "../../lib/ChibiOS/os/hal/ports/STM32/STM32F4xx/stm32_dma.h"
 838              		.file 28 "../../lib/ChibiOS/os/hal/ports/STM32/LLD/GPIOv2/pal_lld.h"
 839              		.file 29 "../../lib/ChibiOS/os/hal/include/gpt.h"
 840              		.file 30 "../../lib/ChibiOS/os/hal/ports/STM32/LLD/TIMv1/gpt_lld.h"
 841              		.file 31 "../../lib/ChibiOS/os/hal/ports/STM32/LLD/TIMv1/stm32_tim.h"
 842              		.file 32 "../../lib/ChibiOS/os/hal/include/i2c.h"
 843              		.file 33 "../../lib/ChibiOS/os/hal/ports/STM32/LLD/I2Cv1/i2c_lld.h"
 844              		.file 34 "../../lib/ChibiOS/os/hal/include/serial.h"
 845              		.file 35 "../../lib/ChibiOS/os/hal/ports/STM32/LLD/USARTv1/serial_lld.h"
 846              		.file 36 "../../lib/ChibiOS/os/hal/include/usb.h"
 847              		.file 37 "../../lib/ChibiOS/os/hal/ports/STM32/LLD/OTGv1/usb_lld.h"
 848              		.file 38 "../../lib/ChibiOS/os/hal/ports/STM32/LLD/OTGv1/stm32_otg.h"
 849              		.file 39 "/Applications/Eclipse_e-puck2.app/Contents/Eclipse_e-puck2/Tools/gcc-arm-none-eabi-7-201
 850              		.file 40 "/Applications/Eclipse_e-puck2.app/Contents/Eclipse_e-puck2/Tools/gcc-arm-none-eabi-7-201
 851              		.file 41 "/Applications/Eclipse_e-puck2.app/Contents/Eclipse_e-puck2/Tools/gcc-arm-none-eabi-7-201
 852              		.file 42 "/Applications/Eclipse_e-puck2.app/Contents/Eclipse_e-puck2/Tools/gcc-arm-none-eabi-7-201
 853              		.file 43 "/Applications/Eclipse_e-puck2.app/Contents/Eclipse_e-puck2/Tools/gcc-arm-none-eabi-7-201
 854              		.file 44 "<built-in>"
 855              		.file 45 "/Applications/Eclipse_e-puck2.app/Contents/Eclipse_e-puck2/Tools/gcc-arm-none-eabi-7-201
 856              		.file 46 "../../lib/msgbus/messagebus.h"
 857              		.file 47 "./mpu9250.h"
 858              		.file 48 "./imu.h"
 859              		.file 49 "../../lib/ChibiOS/os/hal/include/hal.h"
 860              		.file 50 "./i2c_bus.h"
 861              		.file 51 "../../lib/ChibiOS/os/rt/include/chthreads.h"