ARM GAS  /var/folders/sw/pnvwfpq534b094x1wb62mk6m0000gn/T//cc025pr2.s 			page 1


   1              		.cpu cortex-m4
   2              		.eabi_attribute 27, 1
   3              		.eabi_attribute 28, 1
   4              		.eabi_attribute 20, 1
   5              		.eabi_attribute 21, 1
   6              		.eabi_attribute 23, 3
   7              		.eabi_attribute 24, 1
   8              		.eabi_attribute 25, 1
   9              		.eabi_attribute 26, 1
  10              		.eabi_attribute 30, 2
  11              		.eabi_attribute 34, 1
  12              		.eabi_attribute 18, 4
  13              		.file	"process_image.c"
  14              		.text
  15              	.Ltext0:
  16              		.cfi_sections	.debug_frame
  17              		.section	.text.CaptureImage,"ax",%progbits
  18              		.align	1
  19              		.p2align 4,,15
  20              		.syntax unified
  21              		.thumb
  22              		.thumb_func
  23              		.fpu fpv4-sp-d16
  24              		.type	CaptureImage, %function
  25              	CaptureImage:
  26              	.LFB257:
  27              		.file 1 "process_image.c"
  28              		.loc 1 25 0
  29              		.cfi_startproc
  30              		@ Volatile: function does not return.
  31              		@ args = 0, pretend = 0, frame = 8
  32              		@ frame_needed = 0, uses_anonymous_args = 0
  33              	.LVL0:
  34 0000 80B5     		push	{r7, lr}
  35              		.cfi_def_cfa_offset 8
  36              		.cfi_offset 7, -8
  37              		.cfi_offset 14, -4
  38              	.LBB53:
  39              	.LBB54:
  40              		.file 2 "../../lib/e-puck2_main-processor/ChibiOS//os/rt/include/chregistry.h"
  41              		.loc 2 135 0
  42 0002 234C     		ldr	r4, .L8
  43              	.LBE54:
  44              	.LBE53:
  45              		.loc 1 25 0
  46 0004 234A     		ldr	r2, .L8+4
  47              	.LBB57:
  48              	.LBB55:
  49              		.loc 2 135 0
  50 0006 A369     		ldr	r3, [r4, #24]
  51 0008 2349     		ldr	r1, .L8+8
  52              	.LBE55:
  53              	.LBE57:
  54              		.loc 1 25 0
  55 000a 1668     		ldr	r6, [r2]
  56              	.LBB58:
  57              	.LBB56:
ARM GAS  /var/folders/sw/pnvwfpq534b094x1wb62mk6m0000gn/T//cc025pr2.s 			page 2


  58              		.loc 2 135 0
  59 000c 9961     		str	r1, [r3, #24]
  60              	.LBE56:
  61              	.LBE58:
  62              		.loc 1 25 0
  63 000e 86B0     		sub	sp, sp, #24
  64              		.cfi_def_cfa_offset 32
  65              		.loc 1 32 0
  66 0010 0223     		movs	r3, #2
  67 0012 2025     		movs	r5, #32
  68 0014 0A22     		movs	r2, #10
  69 0016 0021     		movs	r1, #0
  70 0018 0093     		str	r3, [sp]
  71              		.loc 1 25 0
  72 001a 0596     		str	r6, [sp, #20]
  73              		.loc 1 32 0
  74 001c 4FF42073 		mov	r3, #640
  75 0020 CDE90155 		strd	r5, r5, [sp, #4]
  76 0024 3020     		movs	r0, #48
  77              	.LVL1:
  78 0026 1D4E     		ldr	r6, .L8+12
  79              	.LBB59:
  80              	.LBB60:
  81              	.LBB61:
  82              	.LBB62:
  83              		.file 3 "../../lib/e-puck2_main-processor/ChibiOS//os/rt/include/chsys.h"
  84              		.loc 3 367 0
  85 0028 1D4F     		ldr	r7, .L8+16
  86              	.LBE62:
  87              	.LBE61:
  88              	.LBE60:
  89              	.LBE59:
  90              		.loc 1 32 0
  91 002a FFF7FEFF 		bl	po8030_advanced_config
  92              	.LVL2:
  93              		.loc 1 33 0
  94 002e FFF7FEFF 		bl	dcmi_enable_double_buffering
  95              	.LVL3:
  96              		.loc 1 34 0
  97 0032 0020     		movs	r0, #0
  98 0034 FFF7FEFF 		bl	dcmi_set_capture_mode
  99              	.LVL4:
 100              	.LBB80:
 101              	.LBB77:
 102              	.LBB67:
 103              	.LBB68:
 104              		.file 4 "../../lib/e-puck2_main-processor/ChibiOS//os/rt/include/chbsem.h"
 105              		.loc 4 271 0
 106 0038 B046     		mov	r8, r6
 107              	.LBE68:
 108              	.LBE67:
 109              	.LBE77:
 110              	.LBE80:
 111              		.loc 1 35 0
 112 003a FFF7FEFF 		bl	dcmi_prepare
 113              	.LVL5:
 114 003e 13E0     		b	.L4
ARM GAS  /var/folders/sw/pnvwfpq534b094x1wb62mk6m0000gn/T//cc025pr2.s 			page 3


 115              	.LVL6:
 116              	.L2:
 117              	.LBB81:
 118              	.LBB78:
 119              		.loc 4 286 0
 120 0040 FFF7FEFF 		bl	chSchRescheduleS
 121              	.LVL7:
 122              	.LBB70:
 123              	.LBB66:
 124              		.loc 3 360 0
 125 0044 FFF7FEFF 		bl	_dbg_check_unlock
 126              	.LVL8:
 127              		.loc 3 361 0
 128 0048 FFF7FEFF 		bl	_stats_stop_measure_crit_thd
 129              	.LVL9:
 130              		.loc 3 367 0
 131 004c 2368     		ldr	r3, [r4]
 132 004e A342     		cmp	r3, r4
 133 0050 07D0     		beq	.L3
 134 0052 A269     		ldr	r2, [r4, #24]
 135 0054 9B68     		ldr	r3, [r3, #8]
 136 0056 9268     		ldr	r2, [r2, #8]
 137 0058 9A42     		cmp	r2, r3
 138 005a 02D2     		bcs	.L3
 139 005c 3846     		mov	r0, r7
 140 005e FFF7FEFF 		bl	chSysHalt
 141              	.LVL10:
 142              	.L3:
 143              	.LBB63:
 144              	.LBB64:
 145              	.LBB65:
 146              		.file 5 "../../lib/e-puck2_main-processor/ChibiOS//os/ext/CMSIS/include/core_cmFunc.h"
 147              		.loc 5 546 0
 148 0062 0023     		movs	r3, #0
 149              		.syntax unified
 150              	@ 546 "../../lib/e-puck2_main-processor/ChibiOS//os/ext/CMSIS/include/core_cmFunc.h" 1
 151 0064 83F31188 		MSR basepri, r3
 152              	@ 0 "" 2
 153              	.LVL11:
 154              		.thumb
 155              		.syntax unified
 156              	.L4:
 157              	.LBE65:
 158              	.LBE64:
 159              	.LBE63:
 160              	.LBE66:
 161              	.LBE70:
 162              	.LBE78:
 163              	.LBE81:
 164              		.loc 1 45 0 discriminator 1
 165 0068 FFF7FEFF 		bl	dcmi_capture_start
 166              	.LVL12:
 167              		.loc 1 47 0 discriminator 1
 168 006c FFF7FEFF 		bl	wait_image_ready
 169              	.LVL13:
 170              	.LBB82:
 171              	.LBB79:
ARM GAS  /var/folders/sw/pnvwfpq534b094x1wb62mk6m0000gn/T//cc025pr2.s 			page 4


 172              	.LBB71:
 173              	.LBB72:
 174              	.LBB73:
 175              	.LBB74:
 176              	.LBB75:
 177              		.loc 5 546 0 discriminator 1
 178              		.syntax unified
 179              	@ 546 "../../lib/e-puck2_main-processor/ChibiOS//os/ext/CMSIS/include/core_cmFunc.h" 1
 180 0070 85F31188 		MSR basepri, r5
 181              	@ 0 "" 2
 182              	.LVL14:
 183              		.thumb
 184              		.syntax unified
 185              	.LBE75:
 186              	.LBE74:
 187              	.LBE73:
 188              		.loc 3 349 0 discriminator 1
 189 0074 FFF7FEFF 		bl	_stats_start_measure_crit_thd
 190              	.LVL15:
 191              		.loc 3 350 0 discriminator 1
 192 0078 FFF7FEFF 		bl	_dbg_check_lock
 193              	.LVL16:
 194              	.LBE72:
 195              	.LBE71:
 196              	.LBB76:
 197              	.LBB69:
 198              		.loc 4 268 0 discriminator 1
 199 007c FFF7FEFF 		bl	chDbgCheckClassI
 200              	.LVL17:
 201              		.loc 4 270 0 discriminator 1
 202 0080 B368     		ldr	r3, [r6, #8]
 203 0082 002B     		cmp	r3, #0
 204 0084 DCDC     		bgt	.L2
 205              		.loc 4 271 0
 206 0086 4046     		mov	r0, r8
 207 0088 FFF7FEFF 		bl	chSemSignalI
 208              	.LVL18:
 209 008c D8E7     		b	.L2
 210              	.L9:
 211 008e 00BF     		.align	2
 212              	.L8:
 213 0090 00000000 		.word	ch
 214 0094 00000000 		.word	__stack_chk_guard
 215 0098 00000000 		.word	.LANCHOR0
 216 009c 00000000 		.word	.LANCHOR1
 217 00a0 00000000 		.word	.LANCHOR2
 218              	.LBE69:
 219              	.LBE76:
 220              	.LBE79:
 221              	.LBE82:
 222              		.cfi_endproc
 223              	.LFE257:
 224              		.size	CaptureImage, .-CaptureImage
 225              		.section	.text.get_distance_cm,"ax",%progbits
 226              		.align	1
 227              		.p2align 4,,15
 228              		.global	get_distance_cm
ARM GAS  /var/folders/sw/pnvwfpq534b094x1wb62mk6m0000gn/T//cc025pr2.s 			page 5


 229              		.syntax unified
 230              		.thumb
 231              		.thumb_func
 232              		.fpu fpv4-sp-d16
 233              		.type	get_distance_cm, %function
 234              	get_distance_cm:
 235              	.LFB259:
 236              		.loc 1 93 0
 237              		.cfi_startproc
 238              		@ args = 0, pretend = 0, frame = 8
 239              		@ frame_needed = 0, uses_anonymous_args = 0
 240 0000 00B5     		push	{lr}
 241              		.cfi_def_cfa_offset 4
 242              		.cfi_offset 14, -4
 243 0002 084B     		ldr	r3, .L14
 244              		.loc 1 94 0
 245 0004 0849     		ldr	r1, .L14+4
 246              		.loc 1 93 0
 247 0006 1A68     		ldr	r2, [r3]
 248              		.loc 1 95 0
 249 0008 91ED000A 		vldr.32	s0, [r1]
 250              		.loc 1 93 0
 251 000c 83B0     		sub	sp, sp, #12
 252              		.cfi_def_cfa_offset 16
 253              		.loc 1 93 0
 254 000e 0192     		str	r2, [sp, #4]
 255              		.loc 1 95 0
 256 0010 019A     		ldr	r2, [sp, #4]
 257 0012 1B68     		ldr	r3, [r3]
 258 0014 9A42     		cmp	r2, r3
 259 0016 02D1     		bne	.L13
 260 0018 03B0     		add	sp, sp, #12
 261              		.cfi_remember_state
 262              		.cfi_def_cfa_offset 4
 263              		@ sp needed
 264 001a 5DF804FB 		ldr	pc, [sp], #4
 265              	.L13:
 266              		.cfi_restore_state
 267 001e FFF7FEFF 		bl	__stack_chk_fail
 268              	.LVL19:
 269              	.L15:
 270 0022 00BF     		.align	2
 271              	.L14:
 272 0024 00000000 		.word	__stack_chk_guard
 273 0028 00000000 		.word	.LANCHOR3
 274              		.cfi_endproc
 275              	.LFE259:
 276              		.size	get_distance_cm, .-get_distance_cm
 277              		.section	.text.get_hor_pos,"ax",%progbits
 278              		.align	1
 279              		.p2align 4,,15
 280              		.global	get_hor_pos
 281              		.syntax unified
 282              		.thumb
 283              		.thumb_func
 284              		.fpu fpv4-sp-d16
 285              		.type	get_hor_pos, %function
ARM GAS  /var/folders/sw/pnvwfpq534b094x1wb62mk6m0000gn/T//cc025pr2.s 			page 6


 286              	get_hor_pos:
 287              	.LFB260:
 288              		.loc 1 97 0
 289              		.cfi_startproc
 290              		@ args = 0, pretend = 0, frame = 8
 291              		@ frame_needed = 0, uses_anonymous_args = 0
 292 0000 00B5     		push	{lr}
 293              		.cfi_def_cfa_offset 4
 294              		.cfi_offset 14, -4
 295 0002 084B     		ldr	r3, .L20
 296              		.loc 1 98 0
 297 0004 0849     		ldr	r1, .L20+4
 298              		.loc 1 97 0
 299 0006 1A68     		ldr	r2, [r3]
 300              		.loc 1 99 0
 301 0008 91ED000A 		vldr.32	s0, [r1]
 302              		.loc 1 97 0
 303 000c 83B0     		sub	sp, sp, #12
 304              		.cfi_def_cfa_offset 16
 305              		.loc 1 97 0
 306 000e 0192     		str	r2, [sp, #4]
 307              		.loc 1 99 0
 308 0010 019A     		ldr	r2, [sp, #4]
 309 0012 1B68     		ldr	r3, [r3]
 310 0014 9A42     		cmp	r2, r3
 311 0016 02D1     		bne	.L19
 312 0018 03B0     		add	sp, sp, #12
 313              		.cfi_remember_state
 314              		.cfi_def_cfa_offset 4
 315              		@ sp needed
 316 001a 5DF804FB 		ldr	pc, [sp], #4
 317              	.L19:
 318              		.cfi_restore_state
 319 001e FFF7FEFF 		bl	__stack_chk_fail
 320              	.LVL20:
 321              	.L21:
 322 0022 00BF     		.align	2
 323              	.L20:
 324 0024 00000000 		.word	__stack_chk_guard
 325 0028 00000000 		.word	.LANCHOR4
 326              		.cfi_endproc
 327              	.LFE260:
 328              		.size	get_hor_pos, .-get_hor_pos
 329              		.section	.text.process_image_start,"ax",%progbits
 330              		.align	1
 331              		.p2align 4,,15
 332              		.global	process_image_start
 333              		.syntax unified
 334              		.thumb
 335              		.thumb_func
 336              		.fpu fpv4-sp-d16
 337              		.type	process_image_start, %function
 338              	process_image_start:
 339              	.LFB261:
 340              		.loc 1 101 0
 341              		.cfi_startproc
 342              		@ args = 0, pretend = 0, frame = 8
ARM GAS  /var/folders/sw/pnvwfpq534b094x1wb62mk6m0000gn/T//cc025pr2.s 			page 7


 343              		@ frame_needed = 0, uses_anonymous_args = 0
 344 0000 30B5     		push	{r4, r5, lr}
 345              		.cfi_def_cfa_offset 12
 346              		.cfi_offset 4, -12
 347              		.cfi_offset 5, -8
 348              		.cfi_offset 14, -4
 349 0002 0E4C     		ldr	r4, .L26
 350              		.loc 1 102 0
 351 0004 0E4B     		ldr	r3, .L26+4
 352              		.loc 1 101 0
 353 0006 2268     		ldr	r2, [r4]
 354              		.loc 1 102 0
 355 0008 0E48     		ldr	r0, .L26+8
 356              		.loc 1 101 0
 357 000a 85B0     		sub	sp, sp, #20
 358              		.cfi_def_cfa_offset 32
 359              		.loc 1 102 0
 360 000c 0025     		movs	r5, #0
 361              		.loc 1 101 0
 362 000e 0392     		str	r2, [sp, #12]
 363              		.loc 1 102 0
 364 0010 4FF4AF61 		mov	r1, #1400
 365 0014 4022     		movs	r2, #64
 366 0016 0095     		str	r5, [sp]
 367 0018 FFF7FEFF 		bl	chThdCreateStatic
 368              	.LVL21:
 369              		.loc 1 103 0
 370 001c 0A4B     		ldr	r3, .L26+12
 371 001e 0095     		str	r5, [sp]
 372 0020 4022     		movs	r2, #64
 373 0022 0A48     		ldr	r0, .L26+16
 374 0024 4FF41E71 		mov	r1, #632
 375 0028 FFF7FEFF 		bl	chThdCreateStatic
 376              	.LVL22:
 377              		.loc 1 104 0
 378 002c 039A     		ldr	r2, [sp, #12]
 379 002e 2368     		ldr	r3, [r4]
 380 0030 9A42     		cmp	r2, r3
 381 0032 01D1     		bne	.L25
 382 0034 05B0     		add	sp, sp, #20
 383              		.cfi_remember_state
 384              		.cfi_def_cfa_offset 12
 385              		@ sp needed
 386 0036 30BD     		pop	{r4, r5, pc}
 387              	.L25:
 388              		.cfi_restore_state
 389 0038 FFF7FEFF 		bl	__stack_chk_fail
 390              	.LVL23:
 391              	.L27:
 392              		.align	2
 393              	.L26:
 394 003c 00000000 		.word	__stack_chk_guard
 395 0040 00000000 		.word	ProcessImage
 396 0044 00000000 		.word	.LANCHOR5
 397 0048 00000000 		.word	CaptureImage
 398 004c 00000000 		.word	.LANCHOR6
 399              		.cfi_endproc
ARM GAS  /var/folders/sw/pnvwfpq534b094x1wb62mk6m0000gn/T//cc025pr2.s 			page 8


 400              	.LFE261:
 401              		.size	process_image_start, .-process_image_start
 402              		.section	.text.line_position,"ax",%progbits
 403              		.align	1
 404              		.p2align 4,,15
 405              		.global	line_position
 406              		.syntax unified
 407              		.thumb
 408              		.thumb_func
 409              		.fpu fpv4-sp-d16
 410              		.type	line_position, %function
 411              	line_position:
 412              	.LFB262:
 413              		.loc 1 106 0
 414              		.cfi_startproc
 415              		@ args = 0, pretend = 0, frame = 8
 416              		@ frame_needed = 0, uses_anonymous_args = 0
 417              	.LVL24:
 418 0000 2DE9F047 		push	{r4, r5, r6, r7, r8, r9, r10, lr}
 419              		.cfi_def_cfa_offset 32
 420              		.cfi_offset 4, -32
 421              		.cfi_offset 5, -28
 422              		.cfi_offset 6, -24
 423              		.cfi_offset 7, -20
 424              		.cfi_offset 8, -16
 425              		.cfi_offset 9, -12
 426              		.cfi_offset 10, -8
 427              		.cfi_offset 14, -4
 428 0004 314E     		ldr	r6, .L59
 429 0006 82B0     		sub	sp, sp, #8
 430              		.cfi_def_cfa_offset 40
 431              		.loc 1 106 0
 432 0008 3368     		ldr	r3, [r6]
 433 000a 0193     		str	r3, [sp, #4]
 434              	.LVL25:
 435              	.LBB83:
 436              		.loc 1 115 0
 437 000c 0029     		cmp	r1, #0
 438 000e 4ED0     		beq	.L28
 439 0010 441E     		subs	r4, r0, #1
 440 0012 4B1E     		subs	r3, r1, #1
 441 0014 10FA83F0 		uxtah	r0, r0, r3
 442              	.LVL26:
 443 0018 2246     		mov	r2, r4
 444              	.LBE83:
 445              		.loc 1 114 0
 446 001a 0023     		movs	r3, #0
 447              	.LVL27:
 448              	.L31:
 449              	.LBB84:
 450              		.loc 1 116 0 discriminator 3
 451 001c 12F8015F 		ldrb	r5, [r2, #1]!	@ zero_extendqisi2
 452              	.LVL28:
 453 0020 2B44     		add	r3, r3, r5
 454              	.LVL29:
 455              		.loc 1 115 0 discriminator 3
 456 0022 8242     		cmp	r2, r0
ARM GAS  /var/folders/sw/pnvwfpq534b094x1wb62mk6m0000gn/T//cc025pr2.s 			page 9


 457              		.loc 1 116 0 discriminator 3
 458 0024 9BB2     		uxth	r3, r3
 459              	.LVL30:
 460              		.loc 1 115 0 discriminator 3
 461 0026 F9D1     		bne	.L31
 462              	.LVL31:
 463              	.LBE84:
 464              		.loc 1 119 0
 465 0028 B3FBF1F2 		udiv	r2, r3, r1
 466              	.LVL32:
 467 002c 284F     		ldr	r7, .L59+4
 468 002e 294D     		ldr	r5, .L59+8
 469 0030 D7ED007A 		vldr.32	s15, [r7]
 470 0034 95ED007A 		vldr.32	s14, [r5]
 471 0038 4FF00008 		mov	r8, #0
 472 003c D2B2     		uxtb	r2, r2
 473 003e 053A     		subs	r2, r2, #5
 474 0040 C246     		mov	r10, r8
 475              	.LBB85:
 476              		.loc 1 121 0
 477 0042 4346     		mov	r3, r8
 478              	.LVL33:
 479              	.LBE85:
 480              		.loc 1 111 0
 481 0044 C446     		mov	ip, r8
 482              		.loc 1 108 0
 483 0046 C146     		mov	r9, r8
 484              	.LBB91:
 485              	.LBB86:
 486              		.loc 1 131 0
 487 0048 4FF4B47E 		mov	lr, #360
 488 004c 09E0     		b	.L36
 489              	.LVL34:
 490              	.L55:
 491              	.LBE86:
 492              		.loc 1 122 0 discriminator 1
 493 004e B9F1000F 		cmp	r9, #0
 494 0052 02D1     		bne	.L35
 495 0054 9C46     		mov	ip, r3
 496              	.LVL35:
 497              		.loc 1 123 0
 498 0056 4FF00109 		mov	r9, #1
 499              	.LVL36:
 500              	.L35:
 501              		.loc 1 121 0 discriminator 2
 502 005a 0133     		adds	r3, r3, #1
 503              	.LVL37:
 504 005c 9BB2     		uxth	r3, r3
 505              	.LVL38:
 506 005e 9942     		cmp	r1, r3
 507 0060 1FD0     		beq	.L54
 508              	.LVL39:
 509              	.L36:
 510              		.loc 1 122 0
 511 0062 14F8010F 		ldrb	r0, [r4, #1]!	@ zero_extendqisi2
 512 0066 9042     		cmp	r0, r2
 513 0068 F1DB     		blt	.L55
ARM GAS  /var/folders/sw/pnvwfpq534b094x1wb62mk6m0000gn/T//cc025pr2.s 			page 10


 514              		.loc 1 126 0
 515 006a F6DD     		ble	.L35
 516              		.loc 1 126 0 is_stmt 0 discriminator 1
 517 006c B9F1000F 		cmp	r9, #0
 518 0070 F3D0     		beq	.L35
 519              	.LVL40:
 520              	.LBB87:
 521              		.loc 1 130 0 is_stmt 1
 522 0072 A3EB0C00 		sub	r0, r3, ip
 523 0076 80B2     		uxth	r0, r0
 524              	.LVL41:
 525              		.loc 1 132 0
 526 0078 0CEB5008 		add	r8, ip, r0, lsr #1
 527 007c 07EE908A 		vmov	s15, r8	@ int
 528              		.loc 1 131 0
 529 0080 9EFBF0F0 		sdiv	r0, lr, r0
 530              	.LVL42:
 531              	.LBE87:
 532              		.loc 1 121 0
 533 0084 0133     		adds	r3, r3, #1
 534              	.LVL43:
 535              	.LBB88:
 536              		.loc 1 132 0
 537 0086 B8EEE77A 		vcvt.f32.s32	s14, s15
 538              	.LBE88:
 539              		.loc 1 121 0
 540 008a 9BB2     		uxth	r3, r3
 541              	.LVL44:
 542              	.LBB89:
 543              		.loc 1 131 0
 544 008c 07EE900A 		vmov	s15, r0	@ int
 545              		.loc 1 132 0
 546 0090 4FF00108 		mov	r8, #1
 547              	.LBE89:
 548              		.loc 1 121 0
 549 0094 9942     		cmp	r1, r3
 550              	.LBB90:
 551              		.loc 1 131 0
 552 0096 F8EEE77A 		vcvt.f32.s32	s15, s15
 553              		.loc 1 132 0
 554 009a C246     		mov	r10, r8
 555              		.loc 1 127 0
 556 009c 4FF00009 		mov	r9, #0
 557              	.LVL45:
 558              	.LBE90:
 559              		.loc 1 121 0
 560 00a0 DFD1     		bne	.L36
 561              	.L54:
 562 00a2 BAF1000F 		cmp	r10, #0
 563 00a6 0ED1     		bne	.L56
 564              	.L37:
 565 00a8 B8F1000F 		cmp	r8, #0
 566 00ac 08D1     		bne	.L57
 567              	.LVL46:
 568              	.L28:
 569              	.LBE91:
 570              		.loc 1 140 0
ARM GAS  /var/folders/sw/pnvwfpq534b094x1wb62mk6m0000gn/T//cc025pr2.s 			page 11


 571 00ae 019A     		ldr	r2, [sp, #4]
 572 00b0 3368     		ldr	r3, [r6]
 573 00b2 9A42     		cmp	r2, r3
 574 00b4 02D1     		bne	.L58
 575 00b6 02B0     		add	sp, sp, #8
 576              		.cfi_remember_state
 577              		.cfi_def_cfa_offset 32
 578              		@ sp needed
 579 00b8 BDE8F087 		pop	{r4, r5, r6, r7, r8, r9, r10, pc}
 580              	.L58:
 581              		.cfi_restore_state
 582 00bc FFF7FEFF 		bl	__stack_chk_fail
 583              	.LVL47:
 584              	.L57:
 585 00c0 85ED007A 		vstr.32	s14, [r5]
 586              		.loc 1 139 0
 587 00c4 F3E7     		b	.L28
 588              	.L56:
 589 00c6 C7ED007A 		vstr.32	s15, [r7]
 590 00ca EDE7     		b	.L37
 591              	.L60:
 592              		.align	2
 593              	.L59:
 594 00cc 00000000 		.word	__stack_chk_guard
 595 00d0 00000000 		.word	.LANCHOR3
 596 00d4 00000000 		.word	.LANCHOR4
 597              		.cfi_endproc
 598              	.LFE262:
 599              		.size	line_position, .-line_position
 600              		.section	.text.ProcessImage,"ax",%progbits
 601              		.align	1
 602              		.p2align 4,,15
 603              		.syntax unified
 604              		.thumb
 605              		.thumb_func
 606              		.fpu fpv4-sp-d16
 607              		.type	ProcessImage, %function
 608              	ProcessImage:
 609              	.LFB258:
 610              		.loc 1 60 0
 611              		.cfi_startproc
 612              		@ args = 0, pretend = 0, frame = 648
 613              		@ frame_needed = 0, uses_anonymous_args = 0
 614              	.LVL48:
 615 0000 30B5     		push	{r4, r5, lr}
 616              		.cfi_def_cfa_offset 12
 617              		.cfi_offset 4, -12
 618              		.cfi_offset 5, -8
 619              		.cfi_offset 14, -4
 620              	.LBB92:
 621              	.LBB93:
 622              		.loc 2 135 0
 623 0002 184A     		ldr	r2, .L67
 624              	.LBE93:
 625              	.LBE92:
 626              		.loc 1 60 0
 627 0004 184B     		ldr	r3, .L67+4
ARM GAS  /var/folders/sw/pnvwfpq534b094x1wb62mk6m0000gn/T//cc025pr2.s 			page 12


 628              	.LBB95:
 629              	.LBB94:
 630              		.loc 2 135 0
 631 0006 9269     		ldr	r2, [r2, #24]
 632 0008 1849     		ldr	r1, .L67+8
 633 000a 9161     		str	r1, [r2, #24]
 634              	.LBE94:
 635              	.LBE95:
 636              		.loc 1 60 0
 637 000c ADF5237D 		sub	sp, sp, #652
 638              		.cfi_def_cfa_offset 664
 639              		.loc 1 60 0
 640 0010 1B68     		ldr	r3, [r3]
 641 0012 A193     		str	r3, [sp, #644]
 642              		.loc 1 66 0
 643 0014 01A8     		add	r0, sp, #4
 644              	.LVL49:
 645 0016 4FF42072 		mov	r2, #640
 646 001a 0021     		movs	r1, #0
 647 001c FFF7FEFF 		bl	memset
 648              	.LVL50:
 649              	.LBB96:
 650              	.LBB97:
 651              	.LBB98:
 652              		.loc 4 143 0
 653 0020 134D     		ldr	r5, .L67+12
 654 0022 0DF28324 		addw	r4, sp, #643
 655              	.L63:
 656              	.LVL51:
 657 0026 2846     		mov	r0, r5
 658 0028 FFF7FEFF 		bl	chSemWait
 659              	.LVL52:
 660              	.LBE98:
 661              	.LBE97:
 662              		.loc 1 72 0
 663 002c FFF7FEFF 		bl	dcmi_get_last_image_ptr
 664              	.LVL53:
 665 0030 0DF10302 		add	r2, sp, #3
 666 0034 0130     		adds	r0, r0, #1
 667              	.LVL54:
 668              	.L62:
 669              	.LBB99:
 670              	.LBB100:
 671              		.loc 1 81 0 discriminator 3
 672 0036 10F8011C 		ldrb	r1, [r0, #-1]	@ zero_extendqisi2
 673 003a 10F8023B 		ldrb	r3, [r0], #2	@ zero_extendqisi2
 674              	.LVL55:
 675 003e 03EB0123 		add	r3, r3, r1, lsl #8
 676              	.LVL56:
 677 0042 C3F34513 		ubfx	r3, r3, #5, #6
 678              		.loc 1 82 0 discriminator 3
 679 0046 02F8013F 		strb	r3, [r2, #1]!
 680              	.LVL57:
 681              	.LBE100:
 682              		.loc 1 74 0 discriminator 3
 683 004a 9442     		cmp	r4, r2
 684 004c F3D1     		bne	.L62
ARM GAS  /var/folders/sw/pnvwfpq534b094x1wb62mk6m0000gn/T//cc025pr2.s 			page 13


 685              	.LBE99:
 686              		.loc 1 85 0
 687 004e 01A8     		add	r0, sp, #4
 688 0050 4FF42071 		mov	r1, #640
 689 0054 FFF7FEFF 		bl	line_position
 690              	.LVL58:
 691              		.loc 1 88 0
 692 0058 4FF42071 		mov	r1, #640
 693 005c 01A8     		add	r0, sp, #4
 694 005e FFF7FEFF 		bl	SendUint8ToComputer
 695              	.LVL59:
 696              	.LBE96:
 697              		.loc 1 68 0
 698 0062 E0E7     		b	.L63
 699              	.L68:
 700              		.align	2
 701              	.L67:
 702 0064 00000000 		.word	ch
 703 0068 00000000 		.word	__stack_chk_guard
 704 006c 00000000 		.word	.LANCHOR7
 705 0070 00000000 		.word	.LANCHOR1
 706              		.cfi_endproc
 707              	.LFE258:
 708              		.size	ProcessImage, .-ProcessImage
 709              		.section	.bss.distance_cm,"aw",%nobits
 710              		.align	2
 711              		.set	.LANCHOR3,. + 0
 712              		.type	distance_cm, %object
 713              		.size	distance_cm, 4
 714              	distance_cm:
 715 0000 00000000 		.space	4
 716              		.section	.bss.hor_pos,"aw",%nobits
 717              		.align	2
 718              		.set	.LANCHOR4,. + 0
 719              		.type	hor_pos, %object
 720              		.size	hor_pos, 4
 721              	hor_pos:
 722 0000 00000000 		.space	4
 723              		.section	.bss.waCaptureImage,"aw",%nobits
 724              		.align	3
 725              		.set	.LANCHOR6,. + 0
 726              		.type	waCaptureImage, %object
 727              		.size	waCaptureImage, 632
 728              	waCaptureImage:
 729 0000 00000000 		.space	632
 729      00000000 
 729      00000000 
 729      00000000 
 729      00000000 
 730              		.section	.bss.waProcessImage,"aw",%nobits
 731              		.align	3
 732              		.set	.LANCHOR5,. + 0
 733              		.type	waProcessImage, %object
 734              		.size	waProcessImage, 1400
 735              	waProcessImage:
 736 0000 00000000 		.space	1400
 736      00000000 
ARM GAS  /var/folders/sw/pnvwfpq534b094x1wb62mk6m0000gn/T//cc025pr2.s 			page 14


 736      00000000 
 736      00000000 
 736      00000000 
 737              		.section	.data.image_ready_sem,"aw",%progbits
 738              		.align	2
 739              		.set	.LANCHOR1,. + 0
 740              		.type	image_ready_sem, %object
 741              		.size	image_ready_sem, 12
 742              	image_ready_sem:
 743 0000 00000000 		.word	image_ready_sem
 744 0004 00000000 		.word	image_ready_sem
 745 0008 00000000 		.word	0
 746              		.section	.rodata.__FUNCTION__.11332,"a",%progbits
 747              		.align	2
 748              		.set	.LANCHOR0,. + 0
 749              		.type	__FUNCTION__.11332, %object
 750              		.size	__FUNCTION__.11332, 13
 751              	__FUNCTION__.11332:
 752 0000 43617074 		.ascii	"CaptureImage\000"
 752      75726549 
 752      6D616765 
 752      00
 753              		.section	.rodata.__FUNCTION__.11340,"a",%progbits
 754              		.align	2
 755              		.set	.LANCHOR7,. + 0
 756              		.type	__FUNCTION__.11340, %object
 757              		.size	__FUNCTION__.11340, 13
 758              	__FUNCTION__.11340:
 759 0000 50726F63 		.ascii	"ProcessImage\000"
 759      65737349 
 759      6D616765 
 759      00
 760              		.section	.rodata.__func__.7153,"a",%progbits
 761              		.align	2
 762              		.set	.LANCHOR2,. + 0
 763              		.type	__func__.7153, %object
 764              		.size	__func__.7153, 12
 765              	__func__.7153:
 766 0000 63685379 		.ascii	"chSysUnlock\000"
 766      73556E6C 
 766      6F636B00 
 767              		.text
 768              	.Letext0:
 769              		.file 6 "/Applications/Eclipse_e-puck2.app/Contents/Eclipse_e-puck2/Tools/gcc-arm-none-eabi-7-2017
 770              		.file 7 "/Applications/Eclipse_e-puck2.app/Contents/Eclipse_e-puck2/Tools/gcc-arm-none-eabi-7-2017
 771              		.file 8 "/Applications/Eclipse_e-puck2.app/Contents/Eclipse_e-puck2/Tools/gcc-arm-none-eabi-7-2017
 772              		.file 9 "../../lib/e-puck2_main-processor/ChibiOS//os/rt/ports/ARMCMx/compilers/GCC/chtypes.h"
 773              		.file 10 "../../lib/e-puck2_main-processor/ChibiOS//os/rt/include/chsystypes.h"
 774              		.file 11 "../../lib/e-puck2_main-processor/ChibiOS//os/rt/include/chschd.h"
 775              		.file 12 "../../lib/e-puck2_main-processor/ChibiOS//os/ext/CMSIS/include/core_cm4.h"
 776              		.file 13 "../../lib/e-puck2_main-processor/ChibiOS//os/ext/CMSIS/ST/system_stm32f4xx.h"
 777              		.file 14 "../../lib/e-puck2_main-processor/ChibiOS//os/ext/CMSIS/ST/stm32f407xx.h"
 778              		.file 15 "../../lib/e-puck2_main-processor/ChibiOS//os/rt/ports/ARMCMx/chcore.h"
 779              		.file 16 "../../lib/e-puck2_main-processor/ChibiOS//os/rt/ports/ARMCMx/chcore_v7m.h"
 780              		.file 17 "../../lib/e-puck2_main-processor/ChibiOS//os/rt/include/chdebug.h"
 781              		.file 18 "../../lib/e-puck2_main-processor/ChibiOS//os/rt/include/chtm.h"
 782              		.file 19 "../../lib/e-puck2_main-processor/ChibiOS//os/rt/include/chstats.h"
ARM GAS  /var/folders/sw/pnvwfpq534b094x1wb62mk6m0000gn/T//cc025pr2.s 			page 15


 783              		.file 20 "../../lib/e-puck2_main-processor/ChibiOS//os/rt/include/chsem.h"
 784              		.file 21 "../../lib/e-puck2_main-processor/ChibiOS//os/rt/include/chmtx.h"
 785              		.file 22 "../../lib/e-puck2_main-processor/ChibiOS//os/rt/include/chevents.h"
 786              		.file 23 "../../lib/e-puck2_main-processor/ChibiOS//os/rt/include/chqueues.h"
 787              		.file 24 "../../lib/e-puck2_main-processor/ChibiOS//os/hal/ports/STM32/STM32F4xx/stm32_dma.h"
 788              		.file 25 "../../lib/e-puck2_main-processor/ChibiOS//os/hal/include/hal_ioblock.h"
 789              		.file 26 "../../lib/e-puck2_main-processor/ChibiOS//os/hal/ports/STM32/LLD/GPIOv2/pal_lld.h"
 790              		.file 27 "../../lib/e-puck2_main-processor/ChibiOS//os/hal/include/adc.h"
 791              		.file 28 "../../lib/e-puck2_main-processor/ChibiOS//os/hal/ports/STM32/STM32F4xx/adc_lld.h"
 792              		.file 29 "../../lib/e-puck2_main-processor/ChibiOS//os/hal/include/can.h"
 793              		.file 30 "../../lib/e-puck2_main-processor/ChibiOS//os/hal/ports/STM32/LLD/can_lld.h"
 794              		.file 31 "../../lib/e-puck2_main-processor/ChibiOS//os/hal/include/dac.h"
 795              		.file 32 "../../lib/e-puck2_main-processor/ChibiOS//os/hal/ports/STM32/LLD/DACv1/dac_lld.h"
 796              		.file 33 "../../lib/e-puck2_main-processor/ChibiOS//os/hal/include/ext.h"
 797              		.file 34 "../../lib/e-puck2_main-processor/ChibiOS//os/hal/ports/STM32/LLD/ext_lld.h"
 798              		.file 35 "../../lib/e-puck2_main-processor/ChibiOS//os/hal/include/gpt.h"
 799              		.file 36 "../../lib/e-puck2_main-processor/ChibiOS//os/hal/ports/STM32/LLD/TIMv1/gpt_lld.h"
 800              		.file 37 "../../lib/e-puck2_main-processor/ChibiOS//os/hal/ports/STM32/LLD/TIMv1/stm32_tim.h"
 801              		.file 38 "../../lib/e-puck2_main-processor/ChibiOS//os/hal/include/i2c.h"
 802              		.file 39 "../../lib/e-puck2_main-processor/ChibiOS//os/hal/ports/STM32/LLD/I2Cv1/i2c_lld.h"
 803              		.file 40 "../../lib/e-puck2_main-processor/ChibiOS//os/hal/include/i2s.h"
 804              		.file 41 "../../lib/e-puck2_main-processor/ChibiOS//os/hal/ports/STM32/LLD/SPIv1/i2s_lld.h"
 805              		.file 42 "../../lib/e-puck2_main-processor/ChibiOS//os/hal/include/pwm.h"
 806              		.file 43 "../../lib/e-puck2_main-processor/ChibiOS//os/hal/ports/STM32/LLD/TIMv1/pwm_lld.h"
 807              		.file 44 "../../lib/e-puck2_main-processor/ChibiOS//os/hal/include/serial.h"
 808              		.file 45 "../../lib/e-puck2_main-processor/ChibiOS//os/hal/ports/STM32/LLD/USARTv1/serial_lld.h"
 809              		.file 46 "../../lib/e-puck2_main-processor/ChibiOS//os/hal/include/sdc.h"
 810              		.file 47 "../../lib/e-puck2_main-processor/ChibiOS//os/hal/ports/STM32/LLD/sdc_lld.h"
 811              		.file 48 "../../lib/e-puck2_main-processor/ChibiOS//os/hal/include/spi.h"
 812              		.file 49 "../../lib/e-puck2_main-processor/ChibiOS//os/hal/ports/STM32/LLD/SPIv1/spi_lld.h"
 813              		.file 50 "../../lib/e-puck2_main-processor/ChibiOS//os/hal/include/usb.h"
 814              		.file 51 "../../lib/e-puck2_main-processor/ChibiOS//os/hal/ports/STM32/LLD/OTGv1/usb_lld.h"
 815              		.file 52 "../../lib/e-puck2_main-processor/ChibiOS//os/hal/ports/STM32/LLD/OTGv1/stm32_otg.h"
 816              		.file 53 "../../lib/e-puck2_main-processor/ChibiOS//os/hal/include/serial_usb.h"
 817              		.file 54 "../../lib/e-puck2_main-processor/src/usbcfg.h"
 818              		.file 55 "../../lib/e-puck2_main-processor/ChibiOS_ext/os/hal/include/../ports/STM32/STM32F4xx/dcm
 819              		.file 56 "../../lib/e-puck2_main-processor/src/camera/po8030.h"
 820              		.file 57 "../../lib/e-puck2_main-processor/src/camera/dcmi_camera.h"
 821              		.file 58 "/Applications/Eclipse_e-puck2.app/Contents/Eclipse_e-puck2/Tools/gcc-arm-none-eabi-7-201
 822              		.file 59 "/Applications/Eclipse_e-puck2.app/Contents/Eclipse_e-puck2/Tools/gcc-arm-none-eabi-7-201
 823              		.file 60 "/Applications/Eclipse_e-puck2.app/Contents/Eclipse_e-puck2/Tools/gcc-arm-none-eabi-7-201
 824              		.file 61 "../../lib/e-puck2_main-processor/src/msgbus/messagebus.h"
 825              		.file 62 "/Applications/Eclipse_e-puck2.app/Contents/Eclipse_e-puck2/Tools/gcc-arm-none-eabi-7-201
 826              		.file 63 "/Applications/Eclipse_e-puck2.app/Contents/Eclipse_e-puck2/Tools/gcc-arm-none-eabi-7-201
 827              		.file 64 "../../lib/e-puck2_main-processor/src/parameter/parameter.h"
 828              		.file 65 "./main.h"
 829              		.file 66 "../../lib/e-puck2_main-processor/ChibiOS//os/rt/include/chthreads.h"
 830              		.file 67 "<built-in>"