ARM GAS  /var/folders/sw/pnvwfpq534b094x1wb62mk6m0000gn/T//cciKdUU0.s 			page 1


   1              		.cpu cortex-m4
   2              		.eabi_attribute 27, 1
   3              		.eabi_attribute 28, 1
   4              		.eabi_attribute 20, 1
   5              		.eabi_attribute 21, 1
   6              		.eabi_attribute 23, 3
   7              		.eabi_attribute 24, 1
   8              		.eabi_attribute 25, 1
   9              		.eabi_attribute 26, 1
  10              		.eabi_attribute 30, 2
  11              		.eabi_attribute 34, 1
  12              		.eabi_attribute 18, 4
  13              		.file	"trajectoire.c"
  14              		.text
  15              	.Ltext0:
  16              		.cfi_sections	.debug_frame
  17              		.global	__aeabi_f2d
  18              		.global	__aeabi_dmul
  19              		.global	__aeabi_dadd
  20              		.global	__aeabi_d2f
  21              		.global	__aeabi_ddiv
  22              		.global	__aeabi_dsub
  23              		.section	.text.convert_pos,"ax",%progbits
  24              		.align	1
  25              		.p2align 4,,15
  26              		.global	convert_pos
  27              		.syntax unified
  28              		.thumb
  29              		.thumb_func
  30              		.fpu fpv4-sp-d16
  31              		.type	convert_pos, %function
  32              	convert_pos:
  33              	.LFB259:
  34              		.file 1 "trajectoire.c"
  35              		.loc 1 29 0
  36              		.cfi_startproc
  37              		@ args = 0, pretend = 0, frame = 16
  38              		@ frame_needed = 0, uses_anonymous_args = 0
  39 0000 2DE9F04F 		push	{r4, r5, r6, r7, r8, r9, r10, fp, lr}
  40              		.cfi_def_cfa_offset 36
  41              		.cfi_offset 4, -36
  42              		.cfi_offset 5, -32
  43              		.cfi_offset 6, -28
  44              		.cfi_offset 7, -24
  45              		.cfi_offset 8, -20
  46              		.cfi_offset 9, -16
  47              		.cfi_offset 10, -12
  48              		.cfi_offset 11, -8
  49              		.cfi_offset 14, -4
  50 0004 2DED028B 		vpush.64	{d8}
  51              		.cfi_def_cfa_offset 44
  52              		.cfi_offset 80, -44
  53              		.cfi_offset 81, -40
  54 0008 7B4D     		ldr	r5, .L12+8
  55              		.loc 1 33 0
  56 000a 7C4B     		ldr	r3, .L12+12
  57              		.loc 1 43 0
ARM GAS  /var/folders/sw/pnvwfpq534b094x1wb62mk6m0000gn/T//cciKdUU0.s 			page 2


  58 000c 9FED7C6A 		vldr.32	s12, .L12+16
  59              		.loc 1 45 0
  60 0010 DFED7C6A 		vldr.32	s13, .L12+20
  61              		.loc 1 34 0
  62 0014 7C4C     		ldr	r4, .L12+24
  63              		.loc 1 33 0
  64 0016 7D4A     		ldr	r2, .L12+28
  65              		.loc 1 29 0
  66 0018 2D68     		ldr	r5, [r5]
  67              		.loc 1 37 0
  68 001a 7D48     		ldr	r0, .L12+32
  69              		.loc 1 40 0
  70 001c 7D49     		ldr	r1, .L12+36
  71              		.loc 1 34 0
  72 001e 5C60     		str	r4, [r3, #4]	@ float
  73              		.loc 1 29 0
  74 0020 85B0     		sub	sp, sp, #20
  75              		.cfi_def_cfa_offset 64
  76              	.LBB2:
  77              		.loc 1 61 0
  78 0022 0FF2CC19 		adr	r9, .L12
  79 0026 D9E90089 		ldrd	r8, [r9]
  80              	.LBE2:
  81              		.loc 1 36 0
  82 002a B7EE007A 		vmov.f32	s14, #1.0e+0
  83              		.loc 1 29 0
  84 002e 0395     		str	r5, [sp, #12]
  85              		.loc 1 45 0
  86 0030 F0EE478A 		vmov.f32	s17, s14
  87 0034 F0EE467A 		vmov.f32	s15, s12
  88 0038 B0EE668A 		vmov.f32	s16, s13
  89 003c 1D46     		mov	r5, r3
  90              		.loc 1 37 0
  91 003e D860     		str	r0, [r3, #12]	@ float
  92              		.loc 1 40 0
  93 0040 5961     		str	r1, [r3, #20]	@ float
  94 0042 A3F1200A 		sub	r10, r3, #32
  95              		.loc 1 45 0
  96 0046 1C46     		mov	r4, r3
  97              		.loc 1 33 0
  98 0048 1A60     		str	r2, [r3]	@ float
  99              		.loc 1 39 0
 100 004a 1A61     		str	r2, [r3, #16]	@ float
 101              		.loc 1 36 0
 102 004c 83ED027A 		vstr.32	s14, [r3, #8]
 103              		.loc 1 42 0
 104 0050 83ED067A 		vstr.32	s14, [r3, #24]
 105              		.loc 1 43 0
 106 0054 83ED076A 		vstr.32	s12, [r3, #28]
 107              		.loc 1 45 0
 108 0058 C3ED086A 		vstr.32	s13, [r3, #32]
 109              	.LVL0:
 110              	.L3:
 111              	.LBB3:
 112              		.loc 1 58 0 discriminator 3
 113 005c 94ED097A 		vldr.32	s14, [r4, #36]
 114 0060 77EEC77A 		vsub.f32	s15, s15, s14
ARM GAS  /var/folders/sw/pnvwfpq534b094x1wb62mk6m0000gn/T//cciKdUU0.s 			page 3


 115 0064 083C     		subs	r4, r4, #8
 116 0066 17EE900A 		vmov	r0, s15
 117 006a FFF7FEFF 		bl	__aeabi_f2d
 118              	.LVL1:
 119 006e 41EC100B 		vmov	d0, r0, r1
 120 0072 FFF7FEFF 		bl	cos
 121              	.LVL2:
 122 0076 78EEA87A 		vadd.f32	s15, s17, s17
 123 007a 53EC102B 		vmov	r2, r3, d0
 124 007e 67EE887A 		vmul.f32	s15, s15, s16
 125 0082 CDE90023 		strd	r2, [sp]
 126 0086 17EE900A 		vmov	r0, s15
 127 008a FFF7FEFF 		bl	__aeabi_f2d
 128              	.LVL3:
 129 008e DDE90023 		ldrd	r2, [sp]
 130 0092 FFF7FEFF 		bl	__aeabi_dmul
 131              	.LVL4:
 132              		.loc 1 57 0 discriminator 3
 133 0096 68EE087A 		vmul.f32	s15, s16, s16
 134              		.loc 1 58 0 discriminator 3
 135 009a 0646     		mov	r6, r0
 136              		.loc 1 57 0 discriminator 3
 137 009c E8EEA87A 		vfma.f32	s15, s17, s17
 138              		.loc 1 58 0 discriminator 3
 139 00a0 0F46     		mov	r7, r1
 140              		.loc 1 57 0 discriminator 3
 141 00a2 17EE900A 		vmov	r0, s15
 142 00a6 FFF7FEFF 		bl	__aeabi_f2d
 143              	.LVL5:
 144              		.loc 1 56 0 discriminator 3
 145 00aa 0246     		mov	r2, r0
 146 00ac 0B46     		mov	r3, r1
 147 00ae 3046     		mov	r0, r6
 148 00b0 3946     		mov	r1, r7
 149 00b2 FFF7FEFF 		bl	__aeabi_dadd
 150              	.LVL6:
 151 00b6 41EC100B 		vmov	d0, r0, r1
 152 00ba FFF7FEFF 		bl	sqrt
 153              	.LVL7:
 154 00be 51EC100B 		vmov	r0, r1, d0
 155 00c2 FFF7FEFF 		bl	__aeabi_d2f
 156              	.LVL8:
 157              		.loc 1 61 0 discriminator 3
 158 00c6 94ED097A 		vldr.32	s14, [r4, #36]
 159 00ca D4ED0B7A 		vldr.32	s15, [r4, #44]
 160              		.loc 1 56 0 discriminator 3
 161 00ce A062     		str	r0, [r4, #40]	@ float
 162              		.loc 1 61 0 discriminator 3
 163 00d0 77EE677A 		vsub.f32	s15, s14, s15
 164              		.loc 1 56 0 discriminator 3
 165 00d4 8346     		mov	fp, r0	@ float
 166              		.loc 1 61 0 discriminator 3
 167 00d6 17EE900A 		vmov	r0, s15
 168 00da FFF7FEFF 		bl	__aeabi_f2d
 169              	.LVL9:
 170 00de 41EC100B 		vmov	d0, r0, r1
 171 00e2 FFF7FEFF 		bl	sin
ARM GAS  /var/folders/sw/pnvwfpq534b094x1wb62mk6m0000gn/T//cciKdUU0.s 			page 4


 172              	.LVL10:
 173 00e6 53EC102B 		vmov	r2, r3, d0
 174 00ea 18EE100A 		vmov	r0, s16
 175 00ee CDE90023 		strd	r2, [sp]
 176 00f2 FFF7FEFF 		bl	__aeabi_f2d
 177              	.LVL11:
 178 00f6 DDE90023 		ldrd	r2, [sp]
 179 00fa FFF7FEFF 		bl	__aeabi_dmul
 180              	.LVL12:
 181 00fe 0646     		mov	r6, r0
 182 0100 5846     		mov	r0, fp	@ float
 183 0102 0F46     		mov	r7, r1
 184 0104 FFF7FEFF 		bl	__aeabi_f2d
 185              	.LVL13:
 186 0108 0246     		mov	r2, r0
 187 010a 0B46     		mov	r3, r1
 188 010c 3046     		mov	r0, r6
 189 010e 3946     		mov	r1, r7
 190 0110 FFF7FEFF 		bl	__aeabi_ddiv
 191              	.LVL14:
 192 0114 0246     		mov	r2, r0
 193 0116 0B46     		mov	r3, r1
 194 0118 4046     		mov	r0, r8
 195 011a 4946     		mov	r1, r9
 196 011c FFF7FEFF 		bl	__aeabi_dsub
 197              	.LVL15:
 198 0120 FFF7FEFF 		bl	__aeabi_d2f
 199              	.LVL16:
 200 0124 E062     		str	r0, [r4, #44]	@ float
 201              		.loc 1 50 0 discriminator 3
 202 0126 A245     		cmp	r10, r4
 203 0128 06D0     		beq	.L2
 204 012a D4ED068A 		vldr.32	s17, [r4, #24]
 205 012e D4ED077A 		vldr.32	s15, [r4, #28]
 206 0132 94ED088A 		vldr.32	s16, [r4, #32]
 207 0136 91E7     		b	.L3
 208              	.L2:
 209 0138 374A     		ldr	r2, .L12+40
 210              	.LBE3:
 211              	.LBB4:
 212              		.loc 1 68 0
 213 013a DFED384A 		vldr.32	s9, .L12+44
 214 013e 9FED385A 		vldr.32	s10, .L12+48
 215              	.LBE4:
 216              	.LBB5:
 217              		.loc 1 50 0
 218 0142 02F12803 		add	r3, r2, #40
 219              	.LBE5:
 220              	.LBB6:
 221              		.loc 1 67 0
 222 0146 F2EE0A5A 		vmov.f32	s11, #1.3e+1
 223              		.loc 1 68 0
 224 014a B3EE0A6A 		vmov.f32	s12, #2.6e+1
 225              	.L4:
 226              		.loc 1 67 0 discriminator 3
 227 014e D3ED086A 		vldr.32	s13, [r3, #32]
 228              		.loc 1 68 0 discriminator 3
ARM GAS  /var/folders/sw/pnvwfpq534b094x1wb62mk6m0000gn/T//cciKdUU0.s 			page 5


 229 0152 D3ED097A 		vldr.32	s15, [r3, #36]
 230              		.loc 1 67 0 discriminator 3
 231 0156 86EEA57A 		vdiv.f32	s14, s13, s11
 232 015a 083B     		subs	r3, r3, #8
 233              		.loc 1 68 0 discriminator 3
 234 015c 67EEA47A 		vmul.f32	s15, s15, s9
 235              		.loc 1 67 0 discriminator 3
 236 0160 83ED0A7A 		vstr.32	s14, [r3, #40]
 237              		.loc 1 68 0 discriminator 3
 238 0164 67EE857A 		vmul.f32	s15, s15, s10
 239 0168 87EE867A 		vdiv.f32	s14, s15, s12
 240 016c 83ED0B7A 		vstr.32	s14, [r3, #44]
 241              	.LVL17:
 242              		.loc 1 65 0 discriminator 3
 243 0170 9A42     		cmp	r2, r3
 244 0172 ECD1     		bne	.L4
 245 0174 2B4C     		ldr	r4, .L12+52
 246              	.L5:
 247              	.LBE6:
 248              	.LBB7:
 249              		.loc 1 76 0 discriminator 3
 250 0176 D5ED017A 		vldr.32	s15, [r5, #4]
 251 017a F1EE677A 		vneg.f32	s15, s15
 252 017e FDEEE77A 		vcvt.s32.f32	s15, s15
 253 0182 17EE900A 		vmov	r0, s15	@ int
 254 0186 FFF7FEFF 		bl	left_motor_set_speed
 255              	.LVL18:
 256              		.loc 1 77 0 discriminator 3
 257 018a D5ED017A 		vldr.32	s15, [r5, #4]
 258 018e FDEEE77A 		vcvt.s32.f32	s15, s15
 259 0192 17EE900A 		vmov	r0, s15	@ int
 260 0196 FFF7FEFF 		bl	right_motor_set_speed
 261              	.LVL19:
 262              		.loc 1 78 0 discriminator 3
 263 019a 4FF47A70 		mov	r0, #1000
 264 019e FFF7FEFF 		bl	chThdSleep
 265              	.LVL20:
 266              		.loc 1 81 0 discriminator 3
 267 01a2 D5ED007A 		vldr.32	s15, [r5]
 268 01a6 FDEEE77A 		vcvt.s32.f32	s15, s15
 269 01aa 17EE900A 		vmov	r0, s15	@ int
 270 01ae FFF7FEFF 		bl	left_motor_set_speed
 271              	.LVL21:
 272              		.loc 1 82 0 discriminator 3
 273 01b2 2B46     		mov	r3, r5
 274 01b4 D3ED007A 		vldr.32	s15, [r3]
 275 01b8 FDEEE77A 		vcvt.s32.f32	s15, s15
 276 01bc 0835     		adds	r5, r5, #8
 277 01be 17EE900A 		vmov	r0, s15	@ int
 278 01c2 FFF7FEFF 		bl	right_motor_set_speed
 279              	.LVL22:
 280              		.loc 1 83 0 discriminator 3
 281 01c6 4FF47A70 		mov	r0, #1000
 282 01ca FFF7FEFF 		bl	chThdSleep
 283              	.LVL23:
 284              		.loc 1 71 0 discriminator 3
 285 01ce AC42     		cmp	r4, r5
ARM GAS  /var/folders/sw/pnvwfpq534b094x1wb62mk6m0000gn/T//cciKdUU0.s 			page 6


 286 01d0 D1D1     		bne	.L5
 287              	.LBE7:
 288              		.loc 1 87 0
 289 01d2 094B     		ldr	r3, .L12+8
 290 01d4 039A     		ldr	r2, [sp, #12]
 291 01d6 1B68     		ldr	r3, [r3]
 292 01d8 9A42     		cmp	r2, r3
 293 01da 04D1     		bne	.L11
 294 01dc 05B0     		add	sp, sp, #20
 295              		.cfi_remember_state
 296              		.cfi_def_cfa_offset 44
 297              		@ sp needed
 298 01de BDEC028B 		vldm	sp!, {d8}
 299              		.cfi_restore 80
 300              		.cfi_restore 81
 301              		.cfi_def_cfa_offset 36
 302 01e2 BDE8F08F 		pop	{r4, r5, r6, r7, r8, r9, r10, fp, pc}
 303              	.L11:
 304              		.cfi_restore_state
 305 01e6 FFF7FEFF 		bl	__stack_chk_fail
 306              	.LVL24:
 307              	.L13:
 308 01ea 00BFAFF3 		.align	3
 308      0080
 309              	.L12:
 310 01f0 00000060 		.word	1610612736
 311 01f4 FB210940 		.word	1074340347
 312 01f8 00000000 		.word	__stack_chk_guard
 313 01fc 00000000 		.word	.LANCHOR0
 314 0200 25064940 		.word	1078527525
 315 0204 00000000 		.word	0
 316 0208 C3F5483F 		.word	1061746115
 317 020c F4FDB43F 		.word	1068826100
 318 0210 C3F5C83F 		.word	1070134723
 319 0214 B4C81640 		.word	1075234996
 320 0218 D8FFFFFF 		.word	.LANCHOR0-40
 321 021c 00007A45 		.word	1165623296
 322 0220 3333AB40 		.word	1084961587
 323 0224 28000000 		.word	.LANCHOR0+40
 324              		.cfi_endproc
 325              	.LFE259:
 326              		.size	convert_pos, .-convert_pos
 327              		.section	.text.interpolate,"ax",%progbits
 328              		.align	1
 329              		.p2align 4,,15
 330              		.global	interpolate
 331              		.syntax unified
 332              		.thumb
 333              		.thumb_func
 334              		.fpu fpv4-sp-d16
 335              		.type	interpolate, %function
 336              	interpolate:
 337              	.LFB260:
 338              		.loc 1 90 0
 339              		.cfi_startproc
 340              		@ args = 0, pretend = 0, frame = 64
 341              		@ frame_needed = 0, uses_anonymous_args = 0
ARM GAS  /var/folders/sw/pnvwfpq534b094x1wb62mk6m0000gn/T//cciKdUU0.s 			page 7


 342 0000 F0B5     		push	{r4, r5, r6, r7, lr}
 343              		.cfi_def_cfa_offset 20
 344              		.cfi_offset 4, -20
 345              		.cfi_offset 5, -16
 346              		.cfi_offset 6, -12
 347              		.cfi_offset 7, -8
 348              		.cfi_offset 14, -4
 349 0002 464B     		ldr	r3, .L26
 350              		.loc 1 99 0
 351 0004 DFED467A 		vldr.32	s15, .L26+4
 352              		.loc 1 90 0
 353 0008 1B68     		ldr	r3, [r3]
 354 000a 91B0     		sub	sp, sp, #68
 355              		.cfi_def_cfa_offset 88
 356 000c 06AA     		add	r2, sp, #24
 357 000e 0BAC     		add	r4, sp, #44
 358 0010 03AE     		add	r6, sp, #12
 359              		.loc 1 99 0
 360 0012 CDED027A 		vstr.32	s15, [sp, #8]
 361              		.loc 1 104 0
 362 0016 F0EE676A 		vmov.f32	s13, s15
 363              		.loc 1 99 0
 364 001a CDED037A 		vstr.32	s15, [sp, #12]
 365              		.loc 1 104 0
 366 001e B0EE676A 		vmov.f32	s12, s15
 367 0022 B0EE677A 		vmov.f32	s14, s15
 368              		.loc 1 99 0
 369 0026 CDED047A 		vstr.32	s15, [sp, #16]
 370              		.loc 1 103 0
 371 002a CDED057A 		vstr.32	s15, [sp, #20]
 372              		.loc 1 104 0
 373 002e CDED0A7A 		vstr.32	s15, [sp, #40]
 374              		.loc 1 90 0
 375 0032 0F93     		str	r3, [sp, #60]
 376              	.LVL25:
 377              		.loc 1 104 0
 378 0034 2146     		mov	r1, r4
 379 0036 1346     		mov	r3, r2
 380 0038 3046     		mov	r0, r6
 381 003a 09AD     		add	r5, sp, #36
 382              		.loc 1 107 0
 383 003c F1EE005A 		vmov.f32	s11, #4.0e+0
 384              		.loc 1 108 0
 385 0040 F7EE007A 		vmov.f32	s15, #1.0e+0
 386              	.LVL26:
 387              	.L16:
 388              		.loc 1 107 0 discriminator 3
 389 0044 35EEC77A 		vsub.f32	s14, s11, s14
 390              		.loc 1 109 0 discriminator 3
 391 0048 76EE666A 		vsub.f32	s13, s12, s13
 392              		.loc 1 108 0 discriminator 3
 393 004c 87EE875A 		vdiv.f32	s10, s15, s14
 394              		.loc 1 109 0 discriminator 3
 395 0050 86EE876A 		vdiv.f32	s12, s13, s14
 396              		.loc 1 108 0 discriminator 3
 397 0054 A3EC015A 		vstmia.32	r3!, {s10}
 398              		.loc 1 106 0 discriminator 3
ARM GAS  /var/folders/sw/pnvwfpq534b094x1wb62mk6m0000gn/T//cciKdUU0.s 			page 8


 399 0058 9D42     		cmp	r5, r3
 400              		.loc 1 109 0 discriminator 3
 401 005a A1EC016A 		vstmia.32	r1!, {s12}
 402              		.loc 1 106 0 discriminator 3
 403 005e 06D0     		beq	.L15
 404 0060 13ED017A 		vldr.32	s14, [r3, #-4]
 405 0064 B0EC016A 		vldmia.32	r0!, {s12}
 406 0068 51ED016A 		vldr.32	s13, [r1, #-4]
 407 006c EAE7     		b	.L16
 408              	.L15:
 409              		.loc 1 113 0
 410 006e DFED2C7A 		vldr.32	s15, .L26+4
 411              		.loc 1 114 0
 412 0072 2C4D     		ldr	r5, .L26+8
 413              		.loc 1 113 0
 414 0074 CDED0E7A 		vstr.32	s15, [sp, #56]
 415              		.loc 1 114 0
 416 0078 17EE901A 		vmov	r1, s15
 417 007c 0EA8     		add	r0, sp, #56
 418 007e 45F8101F 		str	r1, [r5, #16]!	@ float
 419              	.LVL27:
 420 0082 0DF1280E 		add	lr, sp, #40
 421 0086 0146     		mov	r1, r0
 422 0088 1F46     		mov	r7, r3
 423 008a 9C46     		mov	ip, r3
 424              	.LVL28:
 425              	.L17:
 426              		.loc 1 117 0 discriminator 3
 427 008c 31ED017A 		vldmdb.32	r1!, {s14}
 428 0090 7CED016A 		vldmdb.32	ip!, {s13}
 429 0094 A6EEE77A 		vfms.f32	s14, s13, s15
 430              		.loc 1 116 0 discriminator 3
 431 0098 7145     		cmp	r1, lr
 432              		.loc 1 117 0 discriminator 3
 433 009a F0EE477A 		vmov.f32	s15, s14
 434 009e 25ED017A 		vstmdb.32	r5!, {s14}
 435              		.loc 1 116 0 discriminator 3
 436 00a2 F3D1     		bne	.L17
 437              	.LVL29:
 438              		.loc 1 130 0
 439 00a4 9FED1E6A 		vldr.32	s12, .L26+4
 440              		.loc 1 134 0
 441 00a8 F1EE005A 		vmov.f32	s11, #4.0e+0
 442              		.loc 1 131 0
 443 00ac B0EE467A 		vmov.f32	s14, s12
 444 00b0 F0EE466A 		vmov.f32	s13, s12
 445 00b4 F0EE467A 		vmov.f32	s15, s12
 446              		.loc 1 130 0
 447 00b8 8DED056A 		vstr.32	s12, [sp, #20]
 448              		.loc 1 131 0
 449 00bc 8DED0A6A 		vstr.32	s12, [sp, #40]
 450              	.LVL30:
 451              		.loc 1 135 0
 452 00c0 B7EE006A 		vmov.f32	s12, #1.0e+0
 453              	.LVL31:
 454              	.L19:
 455              		.loc 1 134 0 discriminator 3
ARM GAS  /var/folders/sw/pnvwfpq534b094x1wb62mk6m0000gn/T//cciKdUU0.s 			page 9


 456 00c4 75EEE77A 		vsub.f32	s15, s11, s15
 457              		.loc 1 136 0 discriminator 3
 458 00c8 36EEC77A 		vsub.f32	s14, s13, s14
 459              		.loc 1 135 0 discriminator 3
 460 00cc 86EE275A 		vdiv.f32	s10, s12, s15
 461              		.loc 1 136 0 discriminator 3
 462 00d0 C7EE276A 		vdiv.f32	s13, s14, s15
 463              		.loc 1 135 0 discriminator 3
 464 00d4 A2EC015A 		vstmia.32	r2!, {s10}
 465              		.loc 1 133 0 discriminator 3
 466 00d8 9A42     		cmp	r2, r3
 467              		.loc 1 136 0 discriminator 3
 468 00da E4EC016A 		vstmia.32	r4!, {s13}
 469              		.loc 1 133 0 discriminator 3
 470 00de 06D0     		beq	.L18
 471 00e0 52ED017A 		vldr.32	s15, [r2, #-4]
 472 00e4 F6EC016A 		vldmia.32	r6!, {s13}
 473 00e8 14ED017A 		vldr.32	s14, [r4, #-4]
 474 00ec EAE7     		b	.L19
 475              	.L18:
 476              		.loc 1 140 0
 477 00ee DFED0C7A 		vldr.32	s15, .L26+4
 478              		.loc 1 141 0
 479 00f2 0D4B     		ldr	r3, .L26+12
 480              		.loc 1 140 0
 481 00f4 CDED0E7A 		vstr.32	s15, [sp, #56]
 482              		.loc 1 141 0
 483 00f8 17EE902A 		vmov	r2, s15
 484 00fc 43F8102F 		str	r2, [r3, #16]!	@ float
 485              	.LVL32:
 486              	.L20:
 487              		.loc 1 144 0 discriminator 3
 488 0100 30ED017A 		vldmdb.32	r0!, {s14}
 489 0104 77ED016A 		vldmdb.32	r7!, {s13}
 490 0108 A6EEE77A 		vfms.f32	s14, s13, s15
 491              		.loc 1 143 0 discriminator 3
 492 010c 8142     		cmp	r1, r0
 493              		.loc 1 144 0 discriminator 3
 494 010e F0EE477A 		vmov.f32	s15, s14
 495 0112 23ED017A 		vstmdb.32	r3!, {s14}
 496              		.loc 1 143 0 discriminator 3
 497 0116 F3D1     		bne	.L20
 498              	.L21:
 499              	.LVL33:
 500 0118 FEE7     		b	.L21
 501              	.L27:
 502 011a 00BF     		.align	2
 503              	.L26:
 504 011c 00000000 		.word	__stack_chk_guard
 505 0120 00000000 		.word	0
 506 0124 00000000 		.word	.LANCHOR1
 507 0128 00000000 		.word	.LANCHOR2
 508              		.cfi_endproc
 509              	.LFE260:
 510              		.size	interpolate, .-interpolate
 511              		.section	.bss.cx,"aw",%nobits
 512              		.align	2
ARM GAS  /var/folders/sw/pnvwfpq534b094x1wb62mk6m0000gn/T//cciKdUU0.s 			page 10


 513              		.set	.LANCHOR1,. + 0
 514              		.type	cx, %object
 515              		.size	cx, 20
 516              	cx:
 517 0000 00000000 		.space	20
 517      00000000 
 517      00000000 
 517      00000000 
 517      00000000 
 518              		.section	.bss.cy,"aw",%nobits
 519              		.align	2
 520              		.set	.LANCHOR2,. + 0
 521              		.type	cy, %object
 522              		.size	cy, 20
 523              	cy:
 524 0000 00000000 		.space	20
 524      00000000 
 524      00000000 
 524      00000000 
 524      00000000 
 525              		.section	.bss.pos_pol,"aw",%nobits
 526              		.align	2
 527              		.set	.LANCHOR0,. + 0
 528              		.type	pos_pol, %object
 529              		.size	pos_pol, 40
 530              	pos_pol:
 531 0000 00000000 		.space	40
 531      00000000 
 531      00000000 
 531      00000000 
 531      00000000 
 532              		.text
 533              	.Letext0:
 534              		.file 2 "/Applications/Eclipse_e-puck2.app/Contents/Eclipse_e-puck2/Tools/gcc-arm-none-eabi-7-2017
 535              		.file 3 "/Applications/Eclipse_e-puck2.app/Contents/Eclipse_e-puck2/Tools/gcc-arm-none-eabi-7-2017
 536              		.file 4 "/Applications/Eclipse_e-puck2.app/Contents/Eclipse_e-puck2/Tools/gcc-arm-none-eabi-7-2017
 537              		.file 5 "/Applications/Eclipse_e-puck2.app/Contents/Eclipse_e-puck2/Tools/gcc-arm-none-eabi-7-2017
 538              		.file 6 "/Applications/Eclipse_e-puck2.app/Contents/Eclipse_e-puck2/Tools/gcc-arm-none-eabi-7-2017
 539              		.file 7 "/Applications/Eclipse_e-puck2.app/Contents/Eclipse_e-puck2/Tools/gcc-arm-none-eabi-7-2017
 540              		.file 8 "/Applications/Eclipse_e-puck2.app/Contents/Eclipse_e-puck2/Tools/gcc-arm-none-eabi-7-2017
 541              		.file 9 "/Applications/Eclipse_e-puck2.app/Contents/Eclipse_e-puck2/Tools/gcc-arm-none-eabi-7-2017
 542              		.file 10 "../../lib/e-puck2_main-processor/ChibiOS//os/rt/ports/ARMCMx/compilers/GCC/chtypes.h"
 543              		.file 11 "../../lib/e-puck2_main-processor/ChibiOS//os/rt/include/chsystypes.h"
 544              		.file 12 "../../lib/e-puck2_main-processor/ChibiOS//os/rt/include/chschd.h"
 545              		.file 13 "../../lib/e-puck2_main-processor/ChibiOS//os/ext/CMSIS/include/core_cm4.h"
 546              		.file 14 "../../lib/e-puck2_main-processor/ChibiOS//os/ext/CMSIS/ST/system_stm32f4xx.h"
 547              		.file 15 "../../lib/e-puck2_main-processor/ChibiOS//os/ext/CMSIS/ST/stm32f407xx.h"
 548              		.file 16 "../../lib/e-puck2_main-processor/ChibiOS//os/rt/ports/ARMCMx/chcore.h"
 549              		.file 17 "../../lib/e-puck2_main-processor/ChibiOS//os/rt/ports/ARMCMx/chcore_v7m.h"
 550              		.file 18 "../../lib/e-puck2_main-processor/ChibiOS//os/rt/include/chdebug.h"
 551              		.file 19 "../../lib/e-puck2_main-processor/ChibiOS//os/rt/include/chtm.h"
 552              		.file 20 "../../lib/e-puck2_main-processor/ChibiOS//os/rt/include/chstats.h"
 553              		.file 21 "../../lib/e-puck2_main-processor/ChibiOS//os/rt/include/chsem.h"
 554              		.file 22 "../../lib/e-puck2_main-processor/ChibiOS//os/rt/include/chmtx.h"
 555              		.file 23 "../../lib/e-puck2_main-processor/ChibiOS//os/rt/include/chregistry.h"
 556              		.file 24 "../../lib/e-puck2_main-processor/ChibiOS//os/rt/include/chevents.h"
 557              		.file 25 "../../lib/e-puck2_main-processor/ChibiOS//os/rt/include/chqueues.h"
ARM GAS  /var/folders/sw/pnvwfpq534b094x1wb62mk6m0000gn/T//cciKdUU0.s 			page 11


 558              		.file 26 "../../lib/e-puck2_main-processor/ChibiOS//os/hal/ports/STM32/STM32F4xx/stm32_dma.h"
 559              		.file 27 "../../lib/e-puck2_main-processor/ChibiOS//os/hal/include/hal_ioblock.h"
 560              		.file 28 "../../lib/e-puck2_main-processor/ChibiOS//os/hal/ports/STM32/LLD/GPIOv2/pal_lld.h"
 561              		.file 29 "../../lib/e-puck2_main-processor/ChibiOS//os/hal/include/adc.h"
 562              		.file 30 "../../lib/e-puck2_main-processor/ChibiOS//os/hal/ports/STM32/STM32F4xx/adc_lld.h"
 563              		.file 31 "../../lib/e-puck2_main-processor/ChibiOS//os/hal/include/can.h"
 564              		.file 32 "../../lib/e-puck2_main-processor/ChibiOS//os/hal/ports/STM32/LLD/can_lld.h"
 565              		.file 33 "../../lib/e-puck2_main-processor/ChibiOS//os/hal/include/dac.h"
 566              		.file 34 "../../lib/e-puck2_main-processor/ChibiOS//os/hal/ports/STM32/LLD/DACv1/dac_lld.h"
 567              		.file 35 "../../lib/e-puck2_main-processor/ChibiOS//os/hal/include/ext.h"
 568              		.file 36 "../../lib/e-puck2_main-processor/ChibiOS//os/hal/ports/STM32/LLD/ext_lld.h"
 569              		.file 37 "../../lib/e-puck2_main-processor/ChibiOS//os/hal/include/gpt.h"
 570              		.file 38 "../../lib/e-puck2_main-processor/ChibiOS//os/hal/ports/STM32/LLD/TIMv1/gpt_lld.h"
 571              		.file 39 "../../lib/e-puck2_main-processor/ChibiOS//os/hal/ports/STM32/LLD/TIMv1/stm32_tim.h"
 572              		.file 40 "../../lib/e-puck2_main-processor/ChibiOS//os/hal/include/i2c.h"
 573              		.file 41 "../../lib/e-puck2_main-processor/ChibiOS//os/hal/ports/STM32/LLD/I2Cv1/i2c_lld.h"
 574              		.file 42 "../../lib/e-puck2_main-processor/ChibiOS//os/hal/include/i2s.h"
 575              		.file 43 "../../lib/e-puck2_main-processor/ChibiOS//os/hal/ports/STM32/LLD/SPIv1/i2s_lld.h"
 576              		.file 44 "../../lib/e-puck2_main-processor/ChibiOS//os/hal/include/pwm.h"
 577              		.file 45 "../../lib/e-puck2_main-processor/ChibiOS//os/hal/ports/STM32/LLD/TIMv1/pwm_lld.h"
 578              		.file 46 "../../lib/e-puck2_main-processor/ChibiOS//os/hal/include/serial.h"
 579              		.file 47 "../../lib/e-puck2_main-processor/ChibiOS//os/hal/ports/STM32/LLD/USARTv1/serial_lld.h"
 580              		.file 48 "../../lib/e-puck2_main-processor/ChibiOS//os/hal/include/sdc.h"
 581              		.file 49 "../../lib/e-puck2_main-processor/ChibiOS//os/hal/ports/STM32/LLD/sdc_lld.h"
 582              		.file 50 "../../lib/e-puck2_main-processor/ChibiOS//os/hal/include/spi.h"
 583              		.file 51 "../../lib/e-puck2_main-processor/ChibiOS//os/hal/ports/STM32/LLD/SPIv1/spi_lld.h"
 584              		.file 52 "../../lib/e-puck2_main-processor/ChibiOS//os/hal/include/usb.h"
 585              		.file 53 "../../lib/e-puck2_main-processor/ChibiOS//os/hal/ports/STM32/LLD/OTGv1/usb_lld.h"
 586              		.file 54 "../../lib/e-puck2_main-processor/ChibiOS//os/hal/ports/STM32/LLD/OTGv1/stm32_otg.h"
 587              		.file 55 "../../lib/e-puck2_main-processor/src/motors.h"
 588              		.file 56 "../../lib/e-puck2_main-processor/ChibiOS//os/rt/include/chthreads.h"