ARM GAS  /var/folders/sw/pnvwfpq534b094x1wb62mk6m0000gn/T//ccpIbBJg.s 			page 1


   1              		.cpu cortex-m4
   2              		.eabi_attribute 27, 1
   3              		.eabi_attribute 28, 1
   4              		.eabi_attribute 20, 1
   5              		.eabi_attribute 21, 1
   6              		.eabi_attribute 23, 3
   7              		.eabi_attribute 24, 1
   8              		.eabi_attribute 25, 1
   9              		.eabi_attribute 26, 1
  10              		.eabi_attribute 30, 2
  11              		.eabi_attribute 34, 1
  12              		.eabi_attribute 18, 4
  13              		.file	"trajectoire.c"
  14              		.text
  15              	.Ltext0:
  16              		.cfi_sections	.debug_frame
  17              		.global	__aeabi_f2d
  18              		.global	__aeabi_dmul
  19              		.global	__aeabi_dadd
  20              		.global	__aeabi_d2f
  21              		.global	__aeabi_ddiv
  22              		.global	__aeabi_dsub
  23              		.section	.text.convert_pos,"ax",%progbits
  24              		.align	1
  25              		.p2align 4,,15
  26              		.global	convert_pos
  27              		.syntax unified
  28              		.thumb
  29              		.thumb_func
  30              		.fpu fpv4-sp-d16
  31              		.type	convert_pos, %function
  32              	convert_pos:
  33              	.LFB3:
  34              		.file 1 "trajectoire.c"
  35              		.loc 1 18 0
  36              		.cfi_startproc
  37              		@ args = 0, pretend = 0, frame = 816
  38              		@ frame_needed = 0, uses_anonymous_args = 0
  39 0000 2DE9F04F 		push	{r4, r5, r6, r7, r8, r9, r10, fp, lr}
  40              		.cfi_def_cfa_offset 36
  41              		.cfi_offset 4, -36
  42              		.cfi_offset 5, -32
  43              		.cfi_offset 6, -28
  44              		.cfi_offset 7, -24
  45              		.cfi_offset 8, -20
  46              		.cfi_offset 9, -16
  47              		.cfi_offset 10, -12
  48              		.cfi_offset 11, -8
  49              		.cfi_offset 14, -4
  50 0004 2DED048B 		vpush.64	{d8, d9}
  51              		.cfi_def_cfa_offset 52
  52              		.cfi_offset 80, -52
  53              		.cfi_offset 81, -48
  54              		.cfi_offset 82, -44
  55              		.cfi_offset 83, -40
  56 0008 DFF828A1 		ldr	r10, .L9+12
  57 000c ADF54D7D 		sub	sp, sp, #820
ARM GAS  /var/folders/sw/pnvwfpq534b094x1wb62mk6m0000gn/T//ccpIbBJg.s 			page 2


  58              		.cfi_def_cfa_offset 872
  59              		.loc 1 18 0
  60 0010 DAF80030 		ldr	r3, [r10]
  61 0014 CB93     		str	r3, [sp, #812]
  62              		.loc 1 20 0
  63 0016 4FF44872 		mov	r2, #800
  64 001a 0021     		movs	r1, #0
  65 001c 03A8     		add	r0, sp, #12
  66 001e FFF7FEFF 		bl	memset
  67              	.LVL0:
  68 0022 DFED437A 		vldr.32	s15, .L9+8
  69              	.LBB2:
  70              	.LBB3:
  71              		.loc 1 50 0
  72 0026 0FF20019 		adr	r9, .L9
  73 002a D9E90089 		ldrd	r8, [r9]
  74              	.LBE3:
  75              	.LBE2:
  76              		.loc 1 20 0
  77 002e B0EE678A 		vmov.f32	s16, s15
  78 0032 C7AC     		add	r4, sp, #796
  79 0034 01AD     		add	r5, sp, #4
  80 0036 03E0     		b	.L3
  81              	.LVL1:
  82              	.L7:
  83 0038 94ED028A 		vldr.32	s16, [r4, #8]
  84 003c D4ED037A 		vldr.32	s15, [r4, #12]
  85              	.LVL2:
  86              	.L3:
  87              	.LBB5:
  88              	.LBB4:
  89              		.loc 1 47 0 discriminator 3
  90 0040 94ED059A 		vldr.32	s18, [r4, #20]
  91              		.loc 1 42 0 discriminator 3
  92 0044 D4ED048A 		vldr.32	s17, [r4, #16]
  93              	.LVL3:
  94              		.loc 1 47 0 discriminator 3
  95 0048 77EEC97A 		vsub.f32	s15, s15, s18
  96 004c 083C     		subs	r4, r4, #8
  97 004e 17EE900A 		vmov	r0, s15
  98 0052 FFF7FEFF 		bl	__aeabi_f2d
  99              	.LVL4:
 100 0056 41EC100B 		vmov	d0, r0, r1
 101 005a FFF7FEFF 		bl	cos
 102              	.LVL5:
 103 005e 78EE087A 		vadd.f32	s15, s16, s16
 104 0062 53EC102B 		vmov	r2, r3, d0
 105 0066 67EEA87A 		vmul.f32	s15, s15, s17
 106 006a CDE90023 		strd	r2, [sp]
 107 006e 17EE900A 		vmov	r0, s15
 108 0072 FFF7FEFF 		bl	__aeabi_f2d
 109              	.LVL6:
 110 0076 DDE90023 		ldrd	r2, [sp]
 111 007a FFF7FEFF 		bl	__aeabi_dmul
 112              	.LVL7:
 113              		.loc 1 46 0 discriminator 3
 114 007e 68EEA87A 		vmul.f32	s15, s17, s17
ARM GAS  /var/folders/sw/pnvwfpq534b094x1wb62mk6m0000gn/T//ccpIbBJg.s 			page 3


 115              		.loc 1 47 0 discriminator 3
 116 0082 0646     		mov	r6, r0
 117              		.loc 1 46 0 discriminator 3
 118 0084 E8EE087A 		vfma.f32	s15, s16, s16
 119              		.loc 1 47 0 discriminator 3
 120 0088 0F46     		mov	r7, r1
 121              		.loc 1 46 0 discriminator 3
 122 008a 17EE900A 		vmov	r0, s15
 123 008e FFF7FEFF 		bl	__aeabi_f2d
 124              	.LVL8:
 125              		.loc 1 45 0 discriminator 3
 126 0092 0246     		mov	r2, r0
 127 0094 0B46     		mov	r3, r1
 128 0096 3046     		mov	r0, r6
 129 0098 3946     		mov	r1, r7
 130 009a FFF7FEFF 		bl	__aeabi_dadd
 131              	.LVL9:
 132 009e 41EC100B 		vmov	d0, r0, r1
 133 00a2 FFF7FEFF 		bl	sqrt
 134              	.LVL10:
 135 00a6 51EC100B 		vmov	r0, r1, d0
 136 00aa FFF7FEFF 		bl	__aeabi_d2f
 137              	.LVL11:
 138              		.loc 1 50 0 discriminator 3
 139 00ae D4ED057A 		vldr.32	s15, [r4, #20]
 140              		.loc 1 45 0 discriminator 3
 141 00b2 A061     		str	r0, [r4, #24]	@ float
 142              		.loc 1 50 0 discriminator 3
 143 00b4 77EEC97A 		vsub.f32	s15, s15, s18
 144              		.loc 1 45 0 discriminator 3
 145 00b8 8346     		mov	fp, r0	@ float
 146              		.loc 1 50 0 discriminator 3
 147 00ba 17EE900A 		vmov	r0, s15
 148 00be FFF7FEFF 		bl	__aeabi_f2d
 149              	.LVL12:
 150 00c2 41EC100B 		vmov	d0, r0, r1
 151 00c6 FFF7FEFF 		bl	sin
 152              	.LVL13:
 153 00ca 53EC102B 		vmov	r2, r3, d0
 154 00ce 18EE900A 		vmov	r0, s17
 155 00d2 CDE90023 		strd	r2, [sp]
 156 00d6 FFF7FEFF 		bl	__aeabi_f2d
 157              	.LVL14:
 158 00da DDE90023 		ldrd	r2, [sp]
 159 00de FFF7FEFF 		bl	__aeabi_dmul
 160              	.LVL15:
 161 00e2 0646     		mov	r6, r0
 162 00e4 5846     		mov	r0, fp	@ float
 163 00e6 0F46     		mov	r7, r1
 164 00e8 FFF7FEFF 		bl	__aeabi_f2d
 165              	.LVL16:
 166 00ec 0246     		mov	r2, r0
 167 00ee 0B46     		mov	r3, r1
 168 00f0 3046     		mov	r0, r6
 169 00f2 3946     		mov	r1, r7
 170 00f4 FFF7FEFF 		bl	__aeabi_ddiv
 171              	.LVL17:
ARM GAS  /var/folders/sw/pnvwfpq534b094x1wb62mk6m0000gn/T//ccpIbBJg.s 			page 4


 172 00f8 0246     		mov	r2, r0
 173 00fa 0B46     		mov	r3, r1
 174 00fc 4046     		mov	r0, r8
 175 00fe 4946     		mov	r1, r9
 176 0100 FFF7FEFF 		bl	__aeabi_dsub
 177              	.LVL18:
 178 0104 FFF7FEFF 		bl	__aeabi_d2f
 179              	.LVL19:
 180 0108 E061     		str	r0, [r4, #28]	@ float
 181              	.LBE4:
 182              		.loc 1 40 0 discriminator 3
 183 010a A542     		cmp	r5, r4
 184 010c 94D1     		bne	.L7
 185              	.LBE5:
 186              		.loc 1 63 0
 187 010e CB9A     		ldr	r2, [sp, #812]
 188 0110 DAF80030 		ldr	r3, [r10]
 189 0114 9A42     		cmp	r2, r3
 190 0116 05D1     		bne	.L8
 191 0118 0DF54D7D 		add	sp, sp, #820
 192              		.cfi_remember_state
 193              		.cfi_def_cfa_offset 52
 194              		@ sp needed
 195 011c BDEC048B 		vldm	sp!, {d8-d9}
 196              		.cfi_restore 82
 197              		.cfi_restore 83
 198              		.cfi_restore 80
 199              		.cfi_restore 81
 200              		.cfi_def_cfa_offset 36
 201 0120 BDE8F08F 		pop	{r4, r5, r6, r7, r8, r9, r10, fp, pc}
 202              	.L8:
 203              		.cfi_restore_state
 204 0124 FFF7FEFF 		bl	__stack_chk_fail
 205              	.LVL20:
 206              	.L10:
 207              		.align	3
 208              	.L9:
 209 0128 000000C0 		.word	3221225472
 210 012c CA210940 		.word	1074340298
 211 0130 00000000 		.word	0
 212 0134 00000000 		.word	__stack_chk_guard
 213              		.cfi_endproc
 214              	.LFE3:
 215              		.size	convert_pos, .-convert_pos
 216              		.text
 217              	.Letext0:
 218              		.file 2 "/Applications/Eclipse_e-puck2.app/Contents/Eclipse_e-puck2/Tools/gcc-arm-none-eabi-7-2017
 219              		.file 3 "/Applications/Eclipse_e-puck2.app/Contents/Eclipse_e-puck2/Tools/gcc-arm-none-eabi-7-2017
 220              		.file 4 "/Applications/Eclipse_e-puck2.app/Contents/Eclipse_e-puck2/Tools/gcc-arm-none-eabi-7-2017
 221              		.file 5 "/Applications/Eclipse_e-puck2.app/Contents/Eclipse_e-puck2/Tools/gcc-arm-none-eabi-7-2017
 222              		.file 6 "/Applications/Eclipse_e-puck2.app/Contents/Eclipse_e-puck2/Tools/gcc-arm-none-eabi-7-2017
 223              		.file 7 "/Applications/Eclipse_e-puck2.app/Contents/Eclipse_e-puck2/Tools/gcc-arm-none-eabi-7-2017
 224              		.file 8 "/Applications/Eclipse_e-puck2.app/Contents/Eclipse_e-puck2/Tools/gcc-arm-none-eabi-7-2017
 225              		.file 9 "/Applications/Eclipse_e-puck2.app/Contents/Eclipse_e-puck2/Tools/gcc-arm-none-eabi-7-2017
 226              		.file 10 "<built-in>"
 227              		.section	.debug_info,"",%progbits
 228              	.Ldebug_info0:
ARM GAS  /var/folders/sw/pnvwfpq534b094x1wb62mk6m0000gn/T//ccpIbBJg.s 			page 5


 229 0000 D6090000 		.4byte	0x9d6
 230 0004 0400     		.2byte	0x4
 231 0006 00000000 		.4byte	.Ldebug_abbrev0
 232 000a 04       		.byte	0x4
 233 000b 01       		.uleb128 0x1
 234 000c 12020000 		.4byte	.LASF134
 235 0010 0C       		.byte	0xc
 236 0011 12000000 		.4byte	.LASF135
 237 0015 53040000 		.4byte	.LASF136
 238 0019 30000000 		.4byte	.Ldebug_ranges0+0x30
 239 001d 00000000 		.4byte	0
 240 0021 00000000 		.4byte	.Ldebug_line0
 241 0025 02       		.uleb128 0x2
 242 0026 01       		.byte	0x1
 243 0027 06       		.byte	0x6
 244 0028 F8000000 		.4byte	.LASF0
 245 002c 03       		.uleb128 0x3
 246 002d 33000000 		.4byte	.LASF10
 247 0031 02       		.byte	0x2
 248 0032 2B       		.byte	0x2b
 249 0033 37000000 		.4byte	0x37
 250 0037 02       		.uleb128 0x2
 251 0038 01       		.byte	0x1
 252 0039 08       		.byte	0x8
 253 003a DC040000 		.4byte	.LASF1
 254 003e 02       		.uleb128 0x2
 255 003f 02       		.byte	0x2
 256 0040 05       		.byte	0x5
 257 0041 F8040000 		.4byte	.LASF2
 258 0045 02       		.uleb128 0x2
 259 0046 02       		.byte	0x2
 260 0047 07       		.byte	0x7
 261 0048 92030000 		.4byte	.LASF3
 262 004c 02       		.uleb128 0x2
 263 004d 04       		.byte	0x4
 264 004e 05       		.byte	0x5
 265 004f 3D010000 		.4byte	.LASF4
 266 0053 02       		.uleb128 0x2
 267 0054 04       		.byte	0x4
 268 0055 07       		.byte	0x7
 269 0056 6D030000 		.4byte	.LASF5
 270 005a 02       		.uleb128 0x2
 271 005b 08       		.byte	0x8
 272 005c 05       		.byte	0x5
 273 005d EA000000 		.4byte	.LASF6
 274 0061 02       		.uleb128 0x2
 275 0062 08       		.byte	0x8
 276 0063 07       		.byte	0x7
 277 0064 89000000 		.4byte	.LASF7
 278 0068 04       		.uleb128 0x4
 279 0069 04       		.byte	0x4
 280 006a 05       		.byte	0x5
 281 006b 696E7400 		.ascii	"int\000"
 282 006f 02       		.uleb128 0x2
 283 0070 04       		.byte	0x4
 284 0071 07       		.byte	0x7
 285 0072 05020000 		.4byte	.LASF8
ARM GAS  /var/folders/sw/pnvwfpq534b094x1wb62mk6m0000gn/T//ccpIbBJg.s 			page 6


 286 0076 02       		.uleb128 0x2
 287 0077 08       		.byte	0x8
 288 0078 04       		.byte	0x4
 289 0079 03040000 		.4byte	.LASF9
 290 007d 05       		.uleb128 0x5
 291 007e 04       		.byte	0x4
 292 007f 03       		.uleb128 0x3
 293 0080 D5030000 		.4byte	.LASF11
 294 0084 03       		.byte	0x3
 295 0085 22       		.byte	0x22
 296 0086 8A000000 		.4byte	0x8a
 297 008a 06       		.uleb128 0x6
 298 008b 04       		.byte	0x4
 299 008c 90000000 		.4byte	0x90
 300 0090 07       		.uleb128 0x7
 301 0091 B7050000 		.4byte	.LASF118
 302 0095 03       		.uleb128 0x3
 303 0096 3C040000 		.4byte	.LASF12
 304 009a 04       		.byte	0x4
 305 009b 2C       		.byte	0x2c
 306 009c 4C000000 		.4byte	0x4c
 307 00a0 03       		.uleb128 0x3
 308 00a1 D8050000 		.4byte	.LASF13
 309 00a5 04       		.byte	0x4
 310 00a6 72       		.byte	0x72
 311 00a7 4C000000 		.4byte	0x4c
 312 00ab 08       		.uleb128 0x8
 313 00ac DD030000 		.4byte	.LASF14
 314 00b0 05       		.byte	0x5
 315 00b1 6501     		.2byte	0x165
 316 00b3 6F000000 		.4byte	0x6f
 317 00b7 09       		.uleb128 0x9
 318 00b8 04       		.byte	0x4
 319 00b9 04       		.byte	0x4
 320 00ba A6       		.byte	0xa6
 321 00bb D6000000 		.4byte	0xd6
 322 00bf 0A       		.uleb128 0xa
 323 00c0 CF030000 		.4byte	.LASF15
 324 00c4 04       		.byte	0x4
 325 00c5 A8       		.byte	0xa8
 326 00c6 AB000000 		.4byte	0xab
 327 00ca 0A       		.uleb128 0xa
 328 00cb 56030000 		.4byte	.LASF16
 329 00cf 04       		.byte	0x4
 330 00d0 A9       		.byte	0xa9
 331 00d1 D6000000 		.4byte	0xd6
 332 00d5 00       		.byte	0
 333 00d6 0B       		.uleb128 0xb
 334 00d7 37000000 		.4byte	0x37
 335 00db E6000000 		.4byte	0xe6
 336 00df 0C       		.uleb128 0xc
 337 00e0 6F000000 		.4byte	0x6f
 338 00e4 03       		.byte	0x3
 339 00e5 00       		.byte	0
 340 00e6 0D       		.uleb128 0xd
 341 00e7 08       		.byte	0x8
 342 00e8 04       		.byte	0x4
ARM GAS  /var/folders/sw/pnvwfpq534b094x1wb62mk6m0000gn/T//ccpIbBJg.s 			page 7


 343 00e9 A3       		.byte	0xa3
 344 00ea 07010000 		.4byte	0x107
 345 00ee 0E       		.uleb128 0xe
 346 00ef AF050000 		.4byte	.LASF17
 347 00f3 04       		.byte	0x4
 348 00f4 A5       		.byte	0xa5
 349 00f5 68000000 		.4byte	0x68
 350 00f9 00       		.byte	0
 351 00fa 0E       		.uleb128 0xe
 352 00fb BE050000 		.4byte	.LASF18
 353 00ff 04       		.byte	0x4
 354 0100 AA       		.byte	0xaa
 355 0101 B7000000 		.4byte	0xb7
 356 0105 04       		.byte	0x4
 357 0106 00       		.byte	0
 358 0107 03       		.uleb128 0x3
 359 0108 20050000 		.4byte	.LASF19
 360 010c 04       		.byte	0x4
 361 010d AB       		.byte	0xab
 362 010e E6000000 		.4byte	0xe6
 363 0112 03       		.uleb128 0x3
 364 0113 C8010000 		.4byte	.LASF20
 365 0117 04       		.byte	0x4
 366 0118 AF       		.byte	0xaf
 367 0119 7F000000 		.4byte	0x7f
 368 011d 03       		.uleb128 0x3
 369 011e 24060000 		.4byte	.LASF21
 370 0122 06       		.byte	0x6
 371 0123 16       		.byte	0x16
 372 0124 53000000 		.4byte	0x53
 373 0128 0F       		.uleb128 0xf
 374 0129 D9010000 		.4byte	.LASF26
 375 012d 18       		.byte	0x18
 376 012e 06       		.byte	0x6
 377 012f 2F       		.byte	0x2f
 378 0130 7B010000 		.4byte	0x17b
 379 0134 0E       		.uleb128 0xe
 380 0135 03060000 		.4byte	.LASF22
 381 0139 06       		.byte	0x6
 382 013a 31       		.byte	0x31
 383 013b 7B010000 		.4byte	0x17b
 384 013f 00       		.byte	0
 385 0140 10       		.uleb128 0x10
 386 0141 5F6B00   		.ascii	"_k\000"
 387 0144 06       		.byte	0x6
 388 0145 32       		.byte	0x32
 389 0146 68000000 		.4byte	0x68
 390 014a 04       		.byte	0x4
 391 014b 0E       		.uleb128 0xe
 392 014c 9A050000 		.4byte	.LASF23
 393 0150 06       		.byte	0x6
 394 0151 32       		.byte	0x32
 395 0152 68000000 		.4byte	0x68
 396 0156 08       		.byte	0x8
 397 0157 0E       		.uleb128 0xe
 398 0158 C2010000 		.4byte	.LASF24
 399 015c 06       		.byte	0x6
ARM GAS  /var/folders/sw/pnvwfpq534b094x1wb62mk6m0000gn/T//ccpIbBJg.s 			page 8


 400 015d 32       		.byte	0x32
 401 015e 68000000 		.4byte	0x68
 402 0162 0C       		.byte	0xc
 403 0163 0E       		.uleb128 0xe
 404 0164 72060000 		.4byte	.LASF25
 405 0168 06       		.byte	0x6
 406 0169 32       		.byte	0x32
 407 016a 68000000 		.4byte	0x68
 408 016e 10       		.byte	0x10
 409 016f 10       		.uleb128 0x10
 410 0170 5F7800   		.ascii	"_x\000"
 411 0173 06       		.byte	0x6
 412 0174 33       		.byte	0x33
 413 0175 81010000 		.4byte	0x181
 414 0179 14       		.byte	0x14
 415 017a 00       		.byte	0
 416 017b 06       		.uleb128 0x6
 417 017c 04       		.byte	0x4
 418 017d 28010000 		.4byte	0x128
 419 0181 0B       		.uleb128 0xb
 420 0182 1D010000 		.4byte	0x11d
 421 0186 91010000 		.4byte	0x191
 422 018a 0C       		.uleb128 0xc
 423 018b 6F000000 		.4byte	0x6f
 424 018f 00       		.byte	0
 425 0190 00       		.byte	0
 426 0191 0F       		.uleb128 0xf
 427 0192 00020000 		.4byte	.LASF27
 428 0196 24       		.byte	0x24
 429 0197 06       		.byte	0x6
 430 0198 37       		.byte	0x37
 431 0199 0A020000 		.4byte	0x20a
 432 019d 0E       		.uleb128 0xe
 433 019e E1000000 		.4byte	.LASF28
 434 01a2 06       		.byte	0x6
 435 01a3 39       		.byte	0x39
 436 01a4 68000000 		.4byte	0x68
 437 01a8 00       		.byte	0
 438 01a9 0E       		.uleb128 0xe
 439 01aa EC050000 		.4byte	.LASF29
 440 01ae 06       		.byte	0x6
 441 01af 3A       		.byte	0x3a
 442 01b0 68000000 		.4byte	0x68
 443 01b4 04       		.byte	0x4
 444 01b5 0E       		.uleb128 0xe
 445 01b6 10010000 		.4byte	.LASF30
 446 01ba 06       		.byte	0x6
 447 01bb 3B       		.byte	0x3b
 448 01bc 68000000 		.4byte	0x68
 449 01c0 08       		.byte	0x8
 450 01c1 0E       		.uleb128 0xe
 451 01c2 00070000 		.4byte	.LASF31
 452 01c6 06       		.byte	0x6
 453 01c7 3C       		.byte	0x3c
 454 01c8 68000000 		.4byte	0x68
 455 01cc 0C       		.byte	0xc
 456 01cd 0E       		.uleb128 0xe
ARM GAS  /var/folders/sw/pnvwfpq534b094x1wb62mk6m0000gn/T//ccpIbBJg.s 			page 9


 457 01ce 16040000 		.4byte	.LASF32
 458 01d2 06       		.byte	0x6
 459 01d3 3D       		.byte	0x3d
 460 01d4 68000000 		.4byte	0x68
 461 01d8 10       		.byte	0x10
 462 01d9 0E       		.uleb128 0xe
 463 01da F9030000 		.4byte	.LASF33
 464 01de 06       		.byte	0x6
 465 01df 3E       		.byte	0x3e
 466 01e0 68000000 		.4byte	0x68
 467 01e4 14       		.byte	0x14
 468 01e5 0E       		.uleb128 0xe
 469 01e6 77060000 		.4byte	.LASF34
 470 01ea 06       		.byte	0x6
 471 01eb 3F       		.byte	0x3f
 472 01ec 68000000 		.4byte	0x68
 473 01f0 18       		.byte	0x18
 474 01f1 0E       		.uleb128 0xe
 475 01f2 02050000 		.4byte	.LASF35
 476 01f6 06       		.byte	0x6
 477 01f7 40       		.byte	0x40
 478 01f8 68000000 		.4byte	0x68
 479 01fc 1C       		.byte	0x1c
 480 01fd 0E       		.uleb128 0xe
 481 01fe C7060000 		.4byte	.LASF36
 482 0202 06       		.byte	0x6
 483 0203 41       		.byte	0x41
 484 0204 68000000 		.4byte	0x68
 485 0208 20       		.byte	0x20
 486 0209 00       		.byte	0
 487 020a 11       		.uleb128 0x11
 488 020b 1F010000 		.4byte	.LASF37
 489 020f 0801     		.2byte	0x108
 490 0211 06       		.byte	0x6
 491 0212 4A       		.byte	0x4a
 492 0213 4A020000 		.4byte	0x24a
 493 0217 0E       		.uleb128 0xe
 494 0218 A9010000 		.4byte	.LASF38
 495 021c 06       		.byte	0x6
 496 021d 4B       		.byte	0x4b
 497 021e 4A020000 		.4byte	0x24a
 498 0222 00       		.byte	0
 499 0223 0E       		.uleb128 0xe
 500 0224 00000000 		.4byte	.LASF39
 501 0228 06       		.byte	0x6
 502 0229 4C       		.byte	0x4c
 503 022a 4A020000 		.4byte	0x24a
 504 022e 80       		.byte	0x80
 505 022f 12       		.uleb128 0x12
 506 0230 16060000 		.4byte	.LASF40
 507 0234 06       		.byte	0x6
 508 0235 4E       		.byte	0x4e
 509 0236 1D010000 		.4byte	0x11d
 510 023a 0001     		.2byte	0x100
 511 023c 12       		.uleb128 0x12
 512 023d 4D010000 		.4byte	.LASF41
 513 0241 06       		.byte	0x6
ARM GAS  /var/folders/sw/pnvwfpq534b094x1wb62mk6m0000gn/T//ccpIbBJg.s 			page 10


 514 0242 51       		.byte	0x51
 515 0243 1D010000 		.4byte	0x11d
 516 0247 0401     		.2byte	0x104
 517 0249 00       		.byte	0
 518 024a 0B       		.uleb128 0xb
 519 024b 7D000000 		.4byte	0x7d
 520 024f 5A020000 		.4byte	0x25a
 521 0253 0C       		.uleb128 0xc
 522 0254 6F000000 		.4byte	0x6f
 523 0258 1F       		.byte	0x1f
 524 0259 00       		.byte	0
 525 025a 11       		.uleb128 0x11
 526 025b 1F040000 		.4byte	.LASF42
 527 025f 9001     		.2byte	0x190
 528 0261 06       		.byte	0x6
 529 0262 5D       		.byte	0x5d
 530 0263 98020000 		.4byte	0x298
 531 0267 0E       		.uleb128 0xe
 532 0268 03060000 		.4byte	.LASF22
 533 026c 06       		.byte	0x6
 534 026d 5E       		.byte	0x5e
 535 026e 98020000 		.4byte	0x298
 536 0272 00       		.byte	0
 537 0273 0E       		.uleb128 0xe
 538 0274 59050000 		.4byte	.LASF43
 539 0278 06       		.byte	0x6
 540 0279 5F       		.byte	0x5f
 541 027a 68000000 		.4byte	0x68
 542 027e 04       		.byte	0x4
 543 027f 0E       		.uleb128 0xe
 544 0280 B1010000 		.4byte	.LASF44
 545 0284 06       		.byte	0x6
 546 0285 61       		.byte	0x61
 547 0286 9E020000 		.4byte	0x29e
 548 028a 08       		.byte	0x8
 549 028b 0E       		.uleb128 0xe
 550 028c 1F010000 		.4byte	.LASF37
 551 0290 06       		.byte	0x6
 552 0291 62       		.byte	0x62
 553 0292 0A020000 		.4byte	0x20a
 554 0296 88       		.byte	0x88
 555 0297 00       		.byte	0
 556 0298 06       		.uleb128 0x6
 557 0299 04       		.byte	0x4
 558 029a 5A020000 		.4byte	0x25a
 559 029e 0B       		.uleb128 0xb
 560 029f AE020000 		.4byte	0x2ae
 561 02a3 AE020000 		.4byte	0x2ae
 562 02a7 0C       		.uleb128 0xc
 563 02a8 6F000000 		.4byte	0x6f
 564 02ac 1F       		.byte	0x1f
 565 02ad 00       		.byte	0
 566 02ae 06       		.uleb128 0x6
 567 02af 04       		.byte	0x4
 568 02b0 B4020000 		.4byte	0x2b4
 569 02b4 13       		.uleb128 0x13
 570 02b5 0F       		.uleb128 0xf
ARM GAS  /var/folders/sw/pnvwfpq534b094x1wb62mk6m0000gn/T//ccpIbBJg.s 			page 11


 571 02b6 0C050000 		.4byte	.LASF45
 572 02ba 08       		.byte	0x8
 573 02bb 06       		.byte	0x6
 574 02bc 75       		.byte	0x75
 575 02bd DA020000 		.4byte	0x2da
 576 02c1 0E       		.uleb128 0xe
 577 02c2 0A010000 		.4byte	.LASF46
 578 02c6 06       		.byte	0x6
 579 02c7 76       		.byte	0x76
 580 02c8 DA020000 		.4byte	0x2da
 581 02cc 00       		.byte	0
 582 02cd 0E       		.uleb128 0xe
 583 02ce 0C000000 		.4byte	.LASF47
 584 02d2 06       		.byte	0x6
 585 02d3 77       		.byte	0x77
 586 02d4 68000000 		.4byte	0x68
 587 02d8 04       		.byte	0x4
 588 02d9 00       		.byte	0
 589 02da 06       		.uleb128 0x6
 590 02db 04       		.byte	0x4
 591 02dc 37000000 		.4byte	0x37
 592 02e0 0F       		.uleb128 0xf
 593 02e1 2B050000 		.4byte	.LASF48
 594 02e5 68       		.byte	0x68
 595 02e6 06       		.byte	0x6
 596 02e7 B5       		.byte	0xb5
 597 02e8 0A040000 		.4byte	0x40a
 598 02ec 10       		.uleb128 0x10
 599 02ed 5F7000   		.ascii	"_p\000"
 600 02f0 06       		.byte	0x6
 601 02f1 B6       		.byte	0xb6
 602 02f2 DA020000 		.4byte	0x2da
 603 02f6 00       		.byte	0
 604 02f7 10       		.uleb128 0x10
 605 02f8 5F7200   		.ascii	"_r\000"
 606 02fb 06       		.byte	0x6
 607 02fc B7       		.byte	0xb7
 608 02fd 68000000 		.4byte	0x68
 609 0301 04       		.byte	0x4
 610 0302 10       		.uleb128 0x10
 611 0303 5F7700   		.ascii	"_w\000"
 612 0306 06       		.byte	0x6
 613 0307 B8       		.byte	0xb8
 614 0308 68000000 		.4byte	0x68
 615 030c 08       		.byte	0x8
 616 030d 0E       		.uleb128 0xe
 617 030e 46010000 		.4byte	.LASF49
 618 0312 06       		.byte	0x6
 619 0313 B9       		.byte	0xb9
 620 0314 3E000000 		.4byte	0x3e
 621 0318 0C       		.byte	0xc
 622 0319 0E       		.uleb128 0xe
 623 031a 7F030000 		.4byte	.LASF50
 624 031e 06       		.byte	0x6
 625 031f BA       		.byte	0xba
 626 0320 3E000000 		.4byte	0x3e
 627 0324 0E       		.byte	0xe
ARM GAS  /var/folders/sw/pnvwfpq534b094x1wb62mk6m0000gn/T//ccpIbBJg.s 			page 12


 628 0325 10       		.uleb128 0x10
 629 0326 5F626600 		.ascii	"_bf\000"
 630 032a 06       		.byte	0x6
 631 032b BB       		.byte	0xbb
 632 032c B5020000 		.4byte	0x2b5
 633 0330 10       		.byte	0x10
 634 0331 0E       		.uleb128 0xe
 635 0332 AF000000 		.4byte	.LASF51
 636 0336 06       		.byte	0x6
 637 0337 BC       		.byte	0xbc
 638 0338 68000000 		.4byte	0x68
 639 033c 18       		.byte	0x18
 640 033d 0E       		.uleb128 0xe
 641 033e 2D010000 		.4byte	.LASF52
 642 0342 06       		.byte	0x6
 643 0343 C3       		.byte	0xc3
 644 0344 7D000000 		.4byte	0x7d
 645 0348 1C       		.byte	0x1c
 646 0349 0E       		.uleb128 0xe
 647 034a F0010000 		.4byte	.LASF53
 648 034e 06       		.byte	0x6
 649 034f C5       		.byte	0xc5
 650 0350 77050000 		.4byte	0x577
 651 0354 20       		.byte	0x20
 652 0355 0E       		.uleb128 0xe
 653 0356 F2030000 		.4byte	.LASF54
 654 035a 06       		.byte	0x6
 655 035b C7       		.byte	0xc7
 656 035c A1050000 		.4byte	0x5a1
 657 0360 24       		.byte	0x24
 658 0361 0E       		.uleb128 0xe
 659 0362 C6050000 		.4byte	.LASF55
 660 0366 06       		.byte	0x6
 661 0367 CA       		.byte	0xca
 662 0368 C5050000 		.4byte	0x5c5
 663 036c 28       		.byte	0x28
 664 036d 0E       		.uleb128 0xe
 665 036e E1060000 		.4byte	.LASF56
 666 0372 06       		.byte	0x6
 667 0373 CB       		.byte	0xcb
 668 0374 DF050000 		.4byte	0x5df
 669 0378 2C       		.byte	0x2c
 670 0379 10       		.uleb128 0x10
 671 037a 5F756200 		.ascii	"_ub\000"
 672 037e 06       		.byte	0x6
 673 037f CE       		.byte	0xce
 674 0380 B5020000 		.4byte	0x2b5
 675 0384 30       		.byte	0x30
 676 0385 10       		.uleb128 0x10
 677 0386 5F757000 		.ascii	"_up\000"
 678 038a 06       		.byte	0x6
 679 038b CF       		.byte	0xcf
 680 038c DA020000 		.4byte	0x2da
 681 0390 38       		.byte	0x38
 682 0391 10       		.uleb128 0x10
 683 0392 5F757200 		.ascii	"_ur\000"
 684 0396 06       		.byte	0x6
ARM GAS  /var/folders/sw/pnvwfpq534b094x1wb62mk6m0000gn/T//ccpIbBJg.s 			page 13


 685 0397 D0       		.byte	0xd0
 686 0398 68000000 		.4byte	0x68
 687 039c 3C       		.byte	0x3c
 688 039d 0E       		.uleb128 0xe
 689 039e 04010000 		.4byte	.LASF57
 690 03a2 06       		.byte	0x6
 691 03a3 D3       		.byte	0xd3
 692 03a4 E5050000 		.4byte	0x5e5
 693 03a8 40       		.byte	0x40
 694 03a9 0E       		.uleb128 0xe
 695 03aa B9060000 		.4byte	.LASF58
 696 03ae 06       		.byte	0x6
 697 03af D4       		.byte	0xd4
 698 03b0 F5050000 		.4byte	0x5f5
 699 03b4 43       		.byte	0x43
 700 03b5 10       		.uleb128 0x10
 701 03b6 5F6C6200 		.ascii	"_lb\000"
 702 03ba 06       		.byte	0x6
 703 03bb D7       		.byte	0xd7
 704 03bc B5020000 		.4byte	0x2b5
 705 03c0 44       		.byte	0x44
 706 03c1 0E       		.uleb128 0xe
 707 03c2 6A010000 		.4byte	.LASF59
 708 03c6 06       		.byte	0x6
 709 03c7 DA       		.byte	0xda
 710 03c8 68000000 		.4byte	0x68
 711 03cc 4C       		.byte	0x4c
 712 03cd 0E       		.uleb128 0xe
 713 03ce 82010000 		.4byte	.LASF60
 714 03d2 06       		.byte	0x6
 715 03d3 DB       		.byte	0xdb
 716 03d4 95000000 		.4byte	0x95
 717 03d8 50       		.byte	0x50
 718 03d9 0E       		.uleb128 0xe
 719 03da 4A000000 		.4byte	.LASF61
 720 03de 06       		.byte	0x6
 721 03df DE       		.byte	0xde
 722 03e0 28040000 		.4byte	0x428
 723 03e4 54       		.byte	0x54
 724 03e5 0E       		.uleb128 0xe
 725 03e6 E4030000 		.4byte	.LASF62
 726 03ea 06       		.byte	0x6
 727 03eb E2       		.byte	0xe2
 728 03ec 12010000 		.4byte	0x112
 729 03f0 58       		.byte	0x58
 730 03f1 0E       		.uleb128 0xe
 731 03f2 33050000 		.4byte	.LASF63
 732 03f6 06       		.byte	0x6
 733 03f7 E4       		.byte	0xe4
 734 03f8 07010000 		.4byte	0x107
 735 03fc 5C       		.byte	0x5c
 736 03fd 0E       		.uleb128 0xe
 737 03fe EA030000 		.4byte	.LASF64
 738 0402 06       		.byte	0x6
 739 0403 E5       		.byte	0xe5
 740 0404 68000000 		.4byte	0x68
 741 0408 64       		.byte	0x64
ARM GAS  /var/folders/sw/pnvwfpq534b094x1wb62mk6m0000gn/T//ccpIbBJg.s 			page 14


 742 0409 00       		.byte	0
 743 040a 14       		.uleb128 0x14
 744 040b 68000000 		.4byte	0x68
 745 040f 28040000 		.4byte	0x428
 746 0413 15       		.uleb128 0x15
 747 0414 28040000 		.4byte	0x428
 748 0418 15       		.uleb128 0x15
 749 0419 7D000000 		.4byte	0x7d
 750 041d 15       		.uleb128 0x15
 751 041e 65050000 		.4byte	0x565
 752 0422 15       		.uleb128 0x15
 753 0423 68000000 		.4byte	0x68
 754 0427 00       		.byte	0
 755 0428 06       		.uleb128 0x6
 756 0429 04       		.byte	0x4
 757 042a 33040000 		.4byte	0x433
 758 042e 16       		.uleb128 0x16
 759 042f 28040000 		.4byte	0x428
 760 0433 17       		.uleb128 0x17
 761 0434 A2050000 		.4byte	.LASF65
 762 0438 2804     		.2byte	0x428
 763 043a 06       		.byte	0x6
 764 043b 3902     		.2byte	0x239
 765 043d 65050000 		.4byte	0x565
 766 0441 18       		.uleb128 0x18
 767 0442 E0050000 		.4byte	.LASF66
 768 0446 06       		.byte	0x6
 769 0447 3B02     		.2byte	0x23b
 770 0449 68000000 		.4byte	0x68
 771 044d 00       		.byte	0
 772 044e 18       		.uleb128 0x18
 773 044f 55010000 		.4byte	.LASF67
 774 0453 06       		.byte	0x6
 775 0454 4002     		.2byte	0x240
 776 0456 4C060000 		.4byte	0x64c
 777 045a 04       		.byte	0x4
 778 045b 18       		.uleb128 0x18
 779 045c 5D030000 		.4byte	.LASF68
 780 0460 06       		.byte	0x6
 781 0461 4002     		.2byte	0x240
 782 0463 4C060000 		.4byte	0x64c
 783 0467 08       		.byte	0x8
 784 0468 18       		.uleb128 0x18
 785 0469 D1010000 		.4byte	.LASF69
 786 046d 06       		.byte	0x6
 787 046e 4002     		.2byte	0x240
 788 0470 4C060000 		.4byte	0x64c
 789 0474 0C       		.byte	0xc
 790 0475 18       		.uleb128 0x18
 791 0476 54050000 		.4byte	.LASF70
 792 047a 06       		.byte	0x6
 793 047b 4202     		.2byte	0x242
 794 047d 68000000 		.4byte	0x68
 795 0481 10       		.byte	0x10
 796 0482 18       		.uleb128 0x18
 797 0483 28000000 		.4byte	.LASF71
 798 0487 06       		.byte	0x6
ARM GAS  /var/folders/sw/pnvwfpq534b094x1wb62mk6m0000gn/T//ccpIbBJg.s 			page 15


 799 0488 4302     		.2byte	0x243
 800 048a 2E080000 		.4byte	0x82e
 801 048e 14       		.byte	0x14
 802 048f 18       		.uleb128 0x18
 803 0490 70050000 		.4byte	.LASF72
 804 0494 06       		.byte	0x6
 805 0495 4602     		.2byte	0x246
 806 0497 68000000 		.4byte	0x68
 807 049b 30       		.byte	0x30
 808 049c 18       		.uleb128 0x18
 809 049d 5E050000 		.4byte	.LASF73
 810 04a1 06       		.byte	0x6
 811 04a2 4702     		.2byte	0x247
 812 04a4 43080000 		.4byte	0x843
 813 04a8 34       		.byte	0x34
 814 04a9 18       		.uleb128 0x18
 815 04aa 31040000 		.4byte	.LASF74
 816 04ae 06       		.byte	0x6
 817 04af 4902     		.2byte	0x249
 818 04b1 68000000 		.4byte	0x68
 819 04b5 38       		.byte	0x38
 820 04b6 18       		.uleb128 0x18
 821 04b7 66050000 		.4byte	.LASF75
 822 04bb 06       		.byte	0x6
 823 04bc 4B02     		.2byte	0x24b
 824 04be 54080000 		.4byte	0x854
 825 04c2 3C       		.byte	0x3c
 826 04c3 18       		.uleb128 0x18
 827 04c4 C7030000 		.4byte	.LASF76
 828 04c8 06       		.byte	0x6
 829 04c9 4E02     		.2byte	0x24e
 830 04cb 7B010000 		.4byte	0x17b
 831 04cf 40       		.byte	0x40
 832 04d0 18       		.uleb128 0x18
 833 04d1 F6010000 		.4byte	.LASF77
 834 04d5 06       		.byte	0x6
 835 04d6 4F02     		.2byte	0x24f
 836 04d8 68000000 		.4byte	0x68
 837 04dc 44       		.byte	0x44
 838 04dd 18       		.uleb128 0x18
 839 04de FB060000 		.4byte	.LASF78
 840 04e2 06       		.byte	0x6
 841 04e3 5002     		.2byte	0x250
 842 04e5 7B010000 		.4byte	0x17b
 843 04e9 48       		.byte	0x48
 844 04ea 18       		.uleb128 0x18
 845 04eb 49040000 		.4byte	.LASF79
 846 04ef 06       		.byte	0x6
 847 04f0 5102     		.2byte	0x251
 848 04f2 5A080000 		.4byte	0x85a
 849 04f6 4C       		.byte	0x4c
 850 04f7 18       		.uleb128 0x18
 851 04f8 65030000 		.4byte	.LASF80
 852 04fc 06       		.byte	0x6
 853 04fd 5402     		.2byte	0x254
 854 04ff 68000000 		.4byte	0x68
 855 0503 50       		.byte	0x50
ARM GAS  /var/folders/sw/pnvwfpq534b094x1wb62mk6m0000gn/T//ccpIbBJg.s 			page 16


 856 0504 18       		.uleb128 0x18
 857 0505 7A010000 		.4byte	.LASF81
 858 0509 06       		.byte	0x6
 859 050a 5502     		.2byte	0x255
 860 050c 65050000 		.4byte	0x565
 861 0510 54       		.byte	0x54
 862 0511 18       		.uleb128 0x18
 863 0512 EA040000 		.4byte	.LASF82
 864 0516 06       		.byte	0x6
 865 0517 7802     		.2byte	0x278
 866 0519 0C080000 		.4byte	0x80c
 867 051d 58       		.byte	0x58
 868 051e 19       		.uleb128 0x19
 869 051f 1F040000 		.4byte	.LASF42
 870 0523 06       		.byte	0x6
 871 0524 7C02     		.2byte	0x27c
 872 0526 98020000 		.4byte	0x298
 873 052a 4801     		.2byte	0x148
 874 052c 19       		.uleb128 0x19
 875 052d A5030000 		.4byte	.LASF83
 876 0531 06       		.byte	0x6
 877 0532 7D02     		.2byte	0x27d
 878 0534 5A020000 		.4byte	0x25a
 879 0538 4C01     		.2byte	0x14c
 880 053a 19       		.uleb128 0x19
 881 053b AA060000 		.4byte	.LASF84
 882 053f 06       		.byte	0x6
 883 0540 8102     		.2byte	0x281
 884 0542 6B080000 		.4byte	0x86b
 885 0546 DC02     		.2byte	0x2dc
 886 0548 19       		.uleb128 0x19
 887 0549 35010000 		.4byte	.LASF85
 888 054d 06       		.byte	0x6
 889 054e 8602     		.2byte	0x286
 890 0550 11060000 		.4byte	0x611
 891 0554 E002     		.2byte	0x2e0
 892 0556 19       		.uleb128 0x19
 893 0557 1A010000 		.4byte	.LASF86
 894 055b 06       		.byte	0x6
 895 055c 8802     		.2byte	0x288
 896 055e 77080000 		.4byte	0x877
 897 0562 EC02     		.2byte	0x2ec
 898 0564 00       		.byte	0
 899 0565 06       		.uleb128 0x6
 900 0566 04       		.byte	0x4
 901 0567 6B050000 		.4byte	0x56b
 902 056b 02       		.uleb128 0x2
 903 056c 01       		.byte	0x1
 904 056d 08       		.byte	0x8
 905 056e E7050000 		.4byte	.LASF87
 906 0572 16       		.uleb128 0x16
 907 0573 6B050000 		.4byte	0x56b
 908 0577 06       		.uleb128 0x6
 909 0578 04       		.byte	0x4
 910 0579 0A040000 		.4byte	0x40a
 911 057d 14       		.uleb128 0x14
 912 057e 68000000 		.4byte	0x68
ARM GAS  /var/folders/sw/pnvwfpq534b094x1wb62mk6m0000gn/T//ccpIbBJg.s 			page 17


 913 0582 9B050000 		.4byte	0x59b
 914 0586 15       		.uleb128 0x15
 915 0587 28040000 		.4byte	0x428
 916 058b 15       		.uleb128 0x15
 917 058c 7D000000 		.4byte	0x7d
 918 0590 15       		.uleb128 0x15
 919 0591 9B050000 		.4byte	0x59b
 920 0595 15       		.uleb128 0x15
 921 0596 68000000 		.4byte	0x68
 922 059a 00       		.byte	0
 923 059b 06       		.uleb128 0x6
 924 059c 04       		.byte	0x4
 925 059d 72050000 		.4byte	0x572
 926 05a1 06       		.uleb128 0x6
 927 05a2 04       		.byte	0x4
 928 05a3 7D050000 		.4byte	0x57d
 929 05a7 14       		.uleb128 0x14
 930 05a8 A0000000 		.4byte	0xa0
 931 05ac C5050000 		.4byte	0x5c5
 932 05b0 15       		.uleb128 0x15
 933 05b1 28040000 		.4byte	0x428
 934 05b5 15       		.uleb128 0x15
 935 05b6 7D000000 		.4byte	0x7d
 936 05ba 15       		.uleb128 0x15
 937 05bb A0000000 		.4byte	0xa0
 938 05bf 15       		.uleb128 0x15
 939 05c0 68000000 		.4byte	0x68
 940 05c4 00       		.byte	0
 941 05c5 06       		.uleb128 0x6
 942 05c6 04       		.byte	0x4
 943 05c7 A7050000 		.4byte	0x5a7
 944 05cb 14       		.uleb128 0x14
 945 05cc 68000000 		.4byte	0x68
 946 05d0 DF050000 		.4byte	0x5df
 947 05d4 15       		.uleb128 0x15
 948 05d5 28040000 		.4byte	0x428
 949 05d9 15       		.uleb128 0x15
 950 05da 7D000000 		.4byte	0x7d
 951 05de 00       		.byte	0
 952 05df 06       		.uleb128 0x6
 953 05e0 04       		.byte	0x4
 954 05e1 CB050000 		.4byte	0x5cb
 955 05e5 0B       		.uleb128 0xb
 956 05e6 37000000 		.4byte	0x37
 957 05ea F5050000 		.4byte	0x5f5
 958 05ee 0C       		.uleb128 0xc
 959 05ef 6F000000 		.4byte	0x6f
 960 05f3 02       		.byte	0x2
 961 05f4 00       		.byte	0
 962 05f5 0B       		.uleb128 0xb
 963 05f6 37000000 		.4byte	0x37
 964 05fa 05060000 		.4byte	0x605
 965 05fe 0C       		.uleb128 0xc
 966 05ff 6F000000 		.4byte	0x6f
 967 0603 00       		.byte	0
 968 0604 00       		.byte	0
 969 0605 08       		.uleb128 0x8
ARM GAS  /var/folders/sw/pnvwfpq534b094x1wb62mk6m0000gn/T//ccpIbBJg.s 			page 18


 970 0606 19050000 		.4byte	.LASF88
 971 060a 06       		.byte	0x6
 972 060b 1F01     		.2byte	0x11f
 973 060d E0020000 		.4byte	0x2e0
 974 0611 1A       		.uleb128 0x1a
 975 0612 81060000 		.4byte	.LASF89
 976 0616 0C       		.byte	0xc
 977 0617 06       		.byte	0x6
 978 0618 2301     		.2byte	0x123
 979 061a 46060000 		.4byte	0x646
 980 061e 18       		.uleb128 0x18
 981 061f 03060000 		.4byte	.LASF22
 982 0623 06       		.byte	0x6
 983 0624 2501     		.2byte	0x125
 984 0626 46060000 		.4byte	0x646
 985 062a 00       		.byte	0
 986 062b 18       		.uleb128 0x18
 987 062c 8B030000 		.4byte	.LASF90
 988 0630 06       		.byte	0x6
 989 0631 2601     		.2byte	0x126
 990 0633 68000000 		.4byte	0x68
 991 0637 04       		.byte	0x4
 992 0638 18       		.uleb128 0x18
 993 0639 13050000 		.4byte	.LASF91
 994 063d 06       		.byte	0x6
 995 063e 2701     		.2byte	0x127
 996 0640 4C060000 		.4byte	0x64c
 997 0644 08       		.byte	0x8
 998 0645 00       		.byte	0
 999 0646 06       		.uleb128 0x6
 1000 0647 04       		.byte	0x4
 1001 0648 11060000 		.4byte	0x611
 1002 064c 06       		.uleb128 0x6
 1003 064d 04       		.byte	0x4
 1004 064e 05060000 		.4byte	0x605
 1005 0652 1A       		.uleb128 0x1a
 1006 0653 20000000 		.4byte	.LASF92
 1007 0657 0E       		.byte	0xe
 1008 0658 06       		.byte	0x6
 1009 0659 3F01     		.2byte	0x13f
 1010 065b 87060000 		.4byte	0x687
 1011 065f 18       		.uleb128 0x18
 1012 0660 A9050000 		.4byte	.LASF93
 1013 0664 06       		.byte	0x6
 1014 0665 4001     		.2byte	0x140
 1015 0667 87060000 		.4byte	0x687
 1016 066b 00       		.byte	0
 1017 066c 18       		.uleb128 0x18
 1018 066d FD050000 		.4byte	.LASF94
 1019 0671 06       		.byte	0x6
 1020 0672 4101     		.2byte	0x141
 1021 0674 87060000 		.4byte	0x687
 1022 0678 06       		.byte	0x6
 1023 0679 18       		.uleb128 0x18
 1024 067a 1F060000 		.4byte	.LASF95
 1025 067e 06       		.byte	0x6
 1026 067f 4201     		.2byte	0x142
ARM GAS  /var/folders/sw/pnvwfpq534b094x1wb62mk6m0000gn/T//ccpIbBJg.s 			page 19


 1027 0681 45000000 		.4byte	0x45
 1028 0685 0C       		.byte	0xc
 1029 0686 00       		.byte	0
 1030 0687 0B       		.uleb128 0xb
 1031 0688 45000000 		.4byte	0x45
 1032 068c 97060000 		.4byte	0x697
 1033 0690 0C       		.uleb128 0xc
 1034 0691 6F000000 		.4byte	0x6f
 1035 0695 02       		.byte	0x2
 1036 0696 00       		.byte	0
 1037 0697 1B       		.uleb128 0x1b
 1038 0698 D0       		.byte	0xd0
 1039 0699 06       		.byte	0x6
 1040 069a 5902     		.2byte	0x259
 1041 069c 98070000 		.4byte	0x798
 1042 06a0 18       		.uleb128 0x18
 1043 06a1 65060000 		.4byte	.LASF96
 1044 06a5 06       		.byte	0x6
 1045 06a6 5B02     		.2byte	0x25b
 1046 06a8 6F000000 		.4byte	0x6f
 1047 06ac 00       		.byte	0
 1048 06ad 18       		.uleb128 0x18
 1049 06ae 09060000 		.4byte	.LASF97
 1050 06b2 06       		.byte	0x6
 1051 06b3 5C02     		.2byte	0x25c
 1052 06b5 65050000 		.4byte	0x565
 1053 06b9 04       		.byte	0x4
 1054 06ba 18       		.uleb128 0x18
 1055 06bb BA030000 		.4byte	.LASF98
 1056 06bf 06       		.byte	0x6
 1057 06c0 5D02     		.2byte	0x25d
 1058 06c2 98070000 		.4byte	0x798
 1059 06c6 08       		.byte	0x8
 1060 06c7 18       		.uleb128 0x18
 1061 06c8 D2060000 		.4byte	.LASF99
 1062 06cc 06       		.byte	0x6
 1063 06cd 5E02     		.2byte	0x25e
 1064 06cf 91010000 		.4byte	0x191
 1065 06d3 24       		.byte	0x24
 1066 06d4 18       		.uleb128 0x18
 1067 06d5 E1010000 		.4byte	.LASF100
 1068 06d9 06       		.byte	0x6
 1069 06da 5F02     		.2byte	0x25f
 1070 06dc 68000000 		.4byte	0x68
 1071 06e0 48       		.byte	0x48
 1072 06e1 18       		.uleb128 0x18
 1073 06e2 3C050000 		.4byte	.LASF101
 1074 06e6 06       		.byte	0x6
 1075 06e7 6002     		.2byte	0x260
 1076 06e9 61000000 		.4byte	0x61
 1077 06ed 50       		.byte	0x50
 1078 06ee 18       		.uleb128 0x18
 1079 06ef E8060000 		.4byte	.LASF102
 1080 06f3 06       		.byte	0x6
 1081 06f4 6102     		.2byte	0x261
 1082 06f6 52060000 		.4byte	0x652
 1083 06fa 58       		.byte	0x58
ARM GAS  /var/folders/sw/pnvwfpq534b094x1wb62mk6m0000gn/T//ccpIbBJg.s 			page 20


 1084 06fb 18       		.uleb128 0x18
 1085 06fc 47050000 		.4byte	.LASF103
 1086 0700 06       		.byte	0x6
 1087 0701 6202     		.2byte	0x262
 1088 0703 07010000 		.4byte	0x107
 1089 0707 68       		.byte	0x68
 1090 0708 18       		.uleb128 0x18
 1091 0709 ED060000 		.4byte	.LASF104
 1092 070d 06       		.byte	0x6
 1093 070e 6302     		.2byte	0x263
 1094 0710 07010000 		.4byte	0x107
 1095 0714 70       		.byte	0x70
 1096 0715 18       		.uleb128 0x18
 1097 0716 CE040000 		.4byte	.LASF105
 1098 071a 06       		.byte	0x6
 1099 071b 6402     		.2byte	0x264
 1100 071d 07010000 		.4byte	0x107
 1101 0721 78       		.byte	0x78
 1102 0722 18       		.uleb128 0x18
 1103 0723 A0060000 		.4byte	.LASF106
 1104 0727 06       		.byte	0x6
 1105 0728 6502     		.2byte	0x265
 1106 072a A8070000 		.4byte	0x7a8
 1107 072e 80       		.byte	0x80
 1108 072f 18       		.uleb128 0x18
 1109 0730 AE030000 		.4byte	.LASF107
 1110 0734 06       		.byte	0x6
 1111 0735 6602     		.2byte	0x266
 1112 0737 B8070000 		.4byte	0x7b8
 1113 073b 88       		.byte	0x88
 1114 073c 18       		.uleb128 0x18
 1115 073d 3D000000 		.4byte	.LASF108
 1116 0741 06       		.byte	0x6
 1117 0742 6702     		.2byte	0x267
 1118 0744 68000000 		.4byte	0x68
 1119 0748 A0       		.byte	0xa0
 1120 0749 18       		.uleb128 0x18
 1121 074a 9B010000 		.4byte	.LASF109
 1122 074e 06       		.byte	0x6
 1123 074f 6802     		.2byte	0x268
 1124 0751 07010000 		.4byte	0x107
 1125 0755 A4       		.byte	0xa4
 1126 0756 18       		.uleb128 0x18
 1127 0757 D2000000 		.4byte	.LASF110
 1128 075b 06       		.byte	0x6
 1129 075c 6902     		.2byte	0x269
 1130 075e 07010000 		.4byte	0x107
 1131 0762 AC       		.byte	0xac
 1132 0763 18       		.uleb128 0x18
 1133 0764 8A010000 		.4byte	.LASF111
 1134 0768 06       		.byte	0x6
 1135 0769 6A02     		.2byte	0x26a
 1136 076b 07010000 		.4byte	0x107
 1137 076f B4       		.byte	0xb4
 1138 0770 18       		.uleb128 0x18
 1139 0771 50000000 		.4byte	.LASF112
 1140 0775 06       		.byte	0x6
ARM GAS  /var/folders/sw/pnvwfpq534b094x1wb62mk6m0000gn/T//ccpIbBJg.s 			page 21


 1141 0776 6B02     		.2byte	0x26b
 1142 0778 07010000 		.4byte	0x107
 1143 077c BC       		.byte	0xbc
 1144 077d 18       		.uleb128 0x18
 1145 077e 5F000000 		.4byte	.LASF113
 1146 0782 06       		.byte	0x6
 1147 0783 6C02     		.2byte	0x26c
 1148 0785 07010000 		.4byte	0x107
 1149 0789 C4       		.byte	0xc4
 1150 078a 18       		.uleb128 0x18
 1151 078b EF040000 		.4byte	.LASF114
 1152 078f 06       		.byte	0x6
 1153 0790 6D02     		.2byte	0x26d
 1154 0792 68000000 		.4byte	0x68
 1155 0796 CC       		.byte	0xcc
 1156 0797 00       		.byte	0
 1157 0798 0B       		.uleb128 0xb
 1158 0799 6B050000 		.4byte	0x56b
 1159 079d A8070000 		.4byte	0x7a8
 1160 07a1 0C       		.uleb128 0xc
 1161 07a2 6F000000 		.4byte	0x6f
 1162 07a6 19       		.byte	0x19
 1163 07a7 00       		.byte	0
 1164 07a8 0B       		.uleb128 0xb
 1165 07a9 6B050000 		.4byte	0x56b
 1166 07ad B8070000 		.4byte	0x7b8
 1167 07b1 0C       		.uleb128 0xc
 1168 07b2 6F000000 		.4byte	0x6f
 1169 07b6 07       		.byte	0x7
 1170 07b7 00       		.byte	0
 1171 07b8 0B       		.uleb128 0xb
 1172 07b9 6B050000 		.4byte	0x56b
 1173 07bd C8070000 		.4byte	0x7c8
 1174 07c1 0C       		.uleb128 0xc
 1175 07c2 6F000000 		.4byte	0x6f
 1176 07c6 17       		.byte	0x17
 1177 07c7 00       		.byte	0
 1178 07c8 1B       		.uleb128 0x1b
 1179 07c9 F0       		.byte	0xf0
 1180 07ca 06       		.byte	0x6
 1181 07cb 7202     		.2byte	0x272
 1182 07cd EC070000 		.4byte	0x7ec
 1183 07d1 18       		.uleb128 0x18
 1184 07d2 0F040000 		.4byte	.LASF115
 1185 07d6 06       		.byte	0x6
 1186 07d7 7502     		.2byte	0x275
 1187 07d9 EC070000 		.4byte	0x7ec
 1188 07dd 00       		.byte	0
 1189 07de 18       		.uleb128 0x18
 1190 07df 97060000 		.4byte	.LASF116
 1191 07e3 06       		.byte	0x6
 1192 07e4 7602     		.2byte	0x276
 1193 07e6 FC070000 		.4byte	0x7fc
 1194 07ea 78       		.byte	0x78
 1195 07eb 00       		.byte	0
 1196 07ec 0B       		.uleb128 0xb
 1197 07ed DA020000 		.4byte	0x2da
ARM GAS  /var/folders/sw/pnvwfpq534b094x1wb62mk6m0000gn/T//ccpIbBJg.s 			page 22


 1198 07f1 FC070000 		.4byte	0x7fc
 1199 07f5 0C       		.uleb128 0xc
 1200 07f6 6F000000 		.4byte	0x6f
 1201 07fa 1D       		.byte	0x1d
 1202 07fb 00       		.byte	0
 1203 07fc 0B       		.uleb128 0xb
 1204 07fd 6F000000 		.4byte	0x6f
 1205 0801 0C080000 		.4byte	0x80c
 1206 0805 0C       		.uleb128 0xc
 1207 0806 6F000000 		.4byte	0x6f
 1208 080a 1D       		.byte	0x1d
 1209 080b 00       		.byte	0
 1210 080c 1C       		.uleb128 0x1c
 1211 080d F0       		.byte	0xf0
 1212 080e 06       		.byte	0x6
 1213 080f 5702     		.2byte	0x257
 1214 0811 2E080000 		.4byte	0x82e
 1215 0815 1D       		.uleb128 0x1d
 1216 0816 A2050000 		.4byte	.LASF65
 1217 081a 06       		.byte	0x6
 1218 081b 6E02     		.2byte	0x26e
 1219 081d 97060000 		.4byte	0x697
 1220 0821 1D       		.uleb128 0x1d
 1221 0822 BF060000 		.4byte	.LASF117
 1222 0826 06       		.byte	0x6
 1223 0827 7702     		.2byte	0x277
 1224 0829 C8070000 		.4byte	0x7c8
 1225 082d 00       		.byte	0
 1226 082e 0B       		.uleb128 0xb
 1227 082f 6B050000 		.4byte	0x56b
 1228 0833 3E080000 		.4byte	0x83e
 1229 0837 0C       		.uleb128 0xc
 1230 0838 6F000000 		.4byte	0x6f
 1231 083c 18       		.byte	0x18
 1232 083d 00       		.byte	0
 1233 083e 07       		.uleb128 0x7
 1234 083f B8000000 		.4byte	.LASF119
 1235 0843 06       		.uleb128 0x6
 1236 0844 04       		.byte	0x4
 1237 0845 3E080000 		.4byte	0x83e
 1238 0849 1E       		.uleb128 0x1e
 1239 084a 54080000 		.4byte	0x854
 1240 084e 15       		.uleb128 0x15
 1241 084f 28040000 		.4byte	0x428
 1242 0853 00       		.byte	0
 1243 0854 06       		.uleb128 0x6
 1244 0855 04       		.byte	0x4
 1245 0856 49080000 		.4byte	0x849
 1246 085a 06       		.uleb128 0x6
 1247 085b 04       		.byte	0x4
 1248 085c 7B010000 		.4byte	0x17b
 1249 0860 1E       		.uleb128 0x1e
 1250 0861 6B080000 		.4byte	0x86b
 1251 0865 15       		.uleb128 0x15
 1252 0866 68000000 		.4byte	0x68
 1253 086a 00       		.byte	0
 1254 086b 06       		.uleb128 0x6
ARM GAS  /var/folders/sw/pnvwfpq534b094x1wb62mk6m0000gn/T//ccpIbBJg.s 			page 23


 1255 086c 04       		.byte	0x4
 1256 086d 71080000 		.4byte	0x871
 1257 0871 06       		.uleb128 0x6
 1258 0872 04       		.byte	0x4
 1259 0873 60080000 		.4byte	0x860
 1260 0877 0B       		.uleb128 0xb
 1261 0878 05060000 		.4byte	0x605
 1262 087c 87080000 		.4byte	0x887
 1263 0880 0C       		.uleb128 0xc
 1264 0881 6F000000 		.4byte	0x6f
 1265 0885 02       		.byte	0x2
 1266 0886 00       		.byte	0
 1267 0887 1F       		.uleb128 0x1f
 1268 0888 CC050000 		.4byte	.LASF120
 1269 088c 06       		.byte	0x6
 1270 088d 0703     		.2byte	0x307
 1271 088f 28040000 		.4byte	0x428
 1272 0893 1F       		.uleb128 0x1f
 1273 0894 3D060000 		.4byte	.LASF121
 1274 0898 06       		.byte	0x6
 1275 0899 0803     		.2byte	0x308
 1276 089b 2E040000 		.4byte	0x42e
 1277 089f 03       		.uleb128 0x3
 1278 08a0 F5050000 		.4byte	.LASF122
 1279 08a4 07       		.byte	0x7
 1280 08a5 18       		.byte	0x18
 1281 08a6 2C000000 		.4byte	0x2c
 1282 08aa 20       		.uleb128 0x20
 1283 08ab 27040000 		.4byte	.LASF123
 1284 08af 08       		.byte	0x8
 1285 08b0 63       		.byte	0x63
 1286 08b1 65050000 		.4byte	0x565
 1287 08b5 02       		.uleb128 0x2
 1288 08b6 04       		.byte	0x4
 1289 08b7 04       		.byte	0x4
 1290 08b8 43040000 		.4byte	.LASF124
 1291 08bc 02       		.uleb128 0x2
 1292 08bd 08       		.byte	0x8
 1293 08be 04       		.byte	0x4
 1294 08bf 73010000 		.4byte	.LASF125
 1295 08c3 21       		.uleb128 0x21
 1296 08c4 2C060000 		.4byte	.LASF137
 1297 08c8 05       		.byte	0x5
 1298 08c9 01       		.byte	0x1
 1299 08ca 25000000 		.4byte	0x25
 1300 08ce 09       		.byte	0x9
 1301 08cf 8202     		.2byte	0x282
 1302 08d1 EE080000 		.4byte	0x8ee
 1303 08d5 22       		.uleb128 0x22
 1304 08d6 50060000 		.4byte	.LASF126
 1305 08da 7F       		.sleb128 -1
 1306 08db 23       		.uleb128 0x23
 1307 08dc 5C010000 		.4byte	.LASF127
 1308 08e0 00       		.byte	0
 1309 08e1 23       		.uleb128 0x23
 1310 08e2 C3000000 		.4byte	.LASF128
 1311 08e6 01       		.byte	0x1
ARM GAS  /var/folders/sw/pnvwfpq534b094x1wb62mk6m0000gn/T//ccpIbBJg.s 			page 24


 1312 08e7 23       		.uleb128 0x23
 1313 08e8 A0000000 		.4byte	.LASF129
 1314 08ec 02       		.byte	0x2
 1315 08ed 00       		.byte	0
 1316 08ee 1F       		.uleb128 0x1f
 1317 08ef 87060000 		.4byte	.LASF130
 1318 08f3 09       		.byte	0x9
 1319 08f4 8D02     		.2byte	0x28d
 1320 08f6 C3080000 		.4byte	0x8c3
 1321 08fa 24       		.uleb128 0x24
 1322 08fb B6010000 		.4byte	.LASF138
 1323 08ff 01       		.byte	0x1
 1324 0900 12       		.byte	0x12
 1325 0901 00000000 		.4byte	.LFB3
 1326 0905 38010000 		.4byte	.LFE3-.LFB3
 1327 0909 01       		.uleb128 0x1
 1328 090a 9C       		.byte	0x9c
 1329 090b 90090000 		.4byte	0x990
 1330 090f 25       		.uleb128 0x25
 1331 0910 70000000 		.4byte	.LASF131
 1332 0914 01       		.byte	0x1
 1333 0915 14       		.byte	0x14
 1334 0916 90090000 		.4byte	0x990
 1335 091a 03       		.uleb128 0x3
 1336 091b 91       		.byte	0x91
 1337 091c A479     		.sleb128 -860
 1338 091e 26       		.uleb128 0x26
 1339 091f 00000000 		.4byte	.Ldebug_ranges0+0
 1340 0923 65090000 		.4byte	0x965
 1341 0927 27       		.uleb128 0x27
 1342 0928 6900     		.ascii	"i\000"
 1343 092a 01       		.byte	0x1
 1344 092b 28       		.byte	0x28
 1345 092c 9F080000 		.4byte	0x89f
 1346 0930 00000000 		.4byte	.LLST0
 1347 0934 28       		.uleb128 0x28
 1348 0935 18000000 		.4byte	.Ldebug_ranges0+0x18
 1349 0939 29       		.uleb128 0x29
 1350 093a 85030000 		.4byte	.LASF132
 1351 093e 01       		.byte	0x1
 1352 093f 2A       		.byte	0x2a
 1353 0940 B5080000 		.4byte	0x8b5
 1354 0944 15000000 		.4byte	.LLST1
 1355 0948 2A       		.uleb128 0x2a
 1356 0949 5E000000 		.4byte	.LVL5
 1357 094d A0090000 		.4byte	0x9a0
 1358 0951 2A       		.uleb128 0x2a
 1359 0952 A6000000 		.4byte	.LVL10
 1360 0956 AB090000 		.4byte	0x9ab
 1361 095a 2A       		.uleb128 0x2a
 1362 095b CA000000 		.4byte	.LVL13
 1363 095f B6090000 		.4byte	0x9b6
 1364 0963 00       		.byte	0
 1365 0964 00       		.byte	0
 1366 0965 2B       		.uleb128 0x2b
 1367 0966 22000000 		.4byte	.LVL0
 1368 096a C1090000 		.4byte	0x9c1
ARM GAS  /var/folders/sw/pnvwfpq534b094x1wb62mk6m0000gn/T//ccpIbBJg.s 			page 25


 1369 096e 86090000 		.4byte	0x986
 1370 0972 2C       		.uleb128 0x2c
 1371 0973 01       		.uleb128 0x1
 1372 0974 50       		.byte	0x50
 1373 0975 03       		.uleb128 0x3
 1374 0976 91       		.byte	0x91
 1375 0977 A479     		.sleb128 -860
 1376 0979 2C       		.uleb128 0x2c
 1377 097a 01       		.uleb128 0x1
 1378 097b 51       		.byte	0x51
 1379 097c 01       		.uleb128 0x1
 1380 097d 30       		.byte	0x30
 1381 097e 2C       		.uleb128 0x2c
 1382 097f 01       		.uleb128 0x1
 1383 0980 52       		.byte	0x52
 1384 0981 03       		.uleb128 0x3
 1385 0982 0A       		.byte	0xa
 1386 0983 2003     		.2byte	0x320
 1387 0985 00       		.byte	0
 1388 0986 2A       		.uleb128 0x2a
 1389 0987 28010000 		.4byte	.LVL20
 1390 098b D0090000 		.4byte	0x9d0
 1391 098f 00       		.byte	0
 1392 0990 0B       		.uleb128 0xb
 1393 0991 B5080000 		.4byte	0x8b5
 1394 0995 A0090000 		.4byte	0x9a0
 1395 0999 0C       		.uleb128 0xc
 1396 099a 6F000000 		.4byte	0x6f
 1397 099e C7       		.byte	0xc7
 1398 099f 00       		.byte	0
 1399 09a0 2D       		.uleb128 0x2d
 1400 09a1 636F7300 		.ascii	"cos\000"
 1401 09a5 636F7300 		.ascii	"cos\000"
 1402 09a9 09       		.byte	0x9
 1403 09aa 57       		.byte	0x57
 1404 09ab 2E       		.uleb128 0x2e
 1405 09ac B4060000 		.4byte	.LASF133
 1406 09b0 B4060000 		.4byte	.LASF133
 1407 09b4 09       		.byte	0x9
 1408 09b5 70       		.byte	0x70
 1409 09b6 2D       		.uleb128 0x2d
 1410 09b7 73696E00 		.ascii	"sin\000"
 1411 09bb 73696E00 		.ascii	"sin\000"
 1412 09bf 09       		.byte	0x9
 1413 09c0 58       		.byte	0x58
 1414 09c1 2F       		.uleb128 0x2f
 1415 09c2 5E060000 		.4byte	.LASF139
 1416 09c6 78000000 		.4byte	.LASF140
 1417 09ca 0A       		.byte	0xa
 1418 09cb 00       		.byte	0
 1419 09cc 5E060000 		.4byte	.LASF139
 1420 09d0 30       		.uleb128 0x30
 1421 09d1 89050000 		.4byte	.LASF141
 1422 09d5 89050000 		.4byte	.LASF141
 1423 09d9 00       		.byte	0
 1424              		.section	.debug_abbrev,"",%progbits
 1425              	.Ldebug_abbrev0:
ARM GAS  /var/folders/sw/pnvwfpq534b094x1wb62mk6m0000gn/T//ccpIbBJg.s 			page 26


 1426 0000 01       		.uleb128 0x1
 1427 0001 11       		.uleb128 0x11
 1428 0002 01       		.byte	0x1
 1429 0003 25       		.uleb128 0x25
 1430 0004 0E       		.uleb128 0xe
 1431 0005 13       		.uleb128 0x13
 1432 0006 0B       		.uleb128 0xb
 1433 0007 03       		.uleb128 0x3
 1434 0008 0E       		.uleb128 0xe
 1435 0009 1B       		.uleb128 0x1b
 1436 000a 0E       		.uleb128 0xe
 1437 000b 55       		.uleb128 0x55
 1438 000c 17       		.uleb128 0x17
 1439 000d 11       		.uleb128 0x11
 1440 000e 01       		.uleb128 0x1
 1441 000f 10       		.uleb128 0x10
 1442 0010 17       		.uleb128 0x17
 1443 0011 00       		.byte	0
 1444 0012 00       		.byte	0
 1445 0013 02       		.uleb128 0x2
 1446 0014 24       		.uleb128 0x24
 1447 0015 00       		.byte	0
 1448 0016 0B       		.uleb128 0xb
 1449 0017 0B       		.uleb128 0xb
 1450 0018 3E       		.uleb128 0x3e
 1451 0019 0B       		.uleb128 0xb
 1452 001a 03       		.uleb128 0x3
 1453 001b 0E       		.uleb128 0xe
 1454 001c 00       		.byte	0
 1455 001d 00       		.byte	0
 1456 001e 03       		.uleb128 0x3
 1457 001f 16       		.uleb128 0x16
 1458 0020 00       		.byte	0
 1459 0021 03       		.uleb128 0x3
 1460 0022 0E       		.uleb128 0xe
 1461 0023 3A       		.uleb128 0x3a
 1462 0024 0B       		.uleb128 0xb
 1463 0025 3B       		.uleb128 0x3b
 1464 0026 0B       		.uleb128 0xb
 1465 0027 49       		.uleb128 0x49
 1466 0028 13       		.uleb128 0x13
 1467 0029 00       		.byte	0
 1468 002a 00       		.byte	0
 1469 002b 04       		.uleb128 0x4
 1470 002c 24       		.uleb128 0x24
 1471 002d 00       		.byte	0
 1472 002e 0B       		.uleb128 0xb
 1473 002f 0B       		.uleb128 0xb
 1474 0030 3E       		.uleb128 0x3e
 1475 0031 0B       		.uleb128 0xb
 1476 0032 03       		.uleb128 0x3
 1477 0033 08       		.uleb128 0x8
 1478 0034 00       		.byte	0
 1479 0035 00       		.byte	0
 1480 0036 05       		.uleb128 0x5
 1481 0037 0F       		.uleb128 0xf
 1482 0038 00       		.byte	0
ARM GAS  /var/folders/sw/pnvwfpq534b094x1wb62mk6m0000gn/T//ccpIbBJg.s 			page 27


 1483 0039 0B       		.uleb128 0xb
 1484 003a 0B       		.uleb128 0xb
 1485 003b 00       		.byte	0
 1486 003c 00       		.byte	0
 1487 003d 06       		.uleb128 0x6
 1488 003e 0F       		.uleb128 0xf
 1489 003f 00       		.byte	0
 1490 0040 0B       		.uleb128 0xb
 1491 0041 0B       		.uleb128 0xb
 1492 0042 49       		.uleb128 0x49
 1493 0043 13       		.uleb128 0x13
 1494 0044 00       		.byte	0
 1495 0045 00       		.byte	0
 1496 0046 07       		.uleb128 0x7
 1497 0047 13       		.uleb128 0x13
 1498 0048 00       		.byte	0
 1499 0049 03       		.uleb128 0x3
 1500 004a 0E       		.uleb128 0xe
 1501 004b 3C       		.uleb128 0x3c
 1502 004c 19       		.uleb128 0x19
 1503 004d 00       		.byte	0
 1504 004e 00       		.byte	0
 1505 004f 08       		.uleb128 0x8
 1506 0050 16       		.uleb128 0x16
 1507 0051 00       		.byte	0
 1508 0052 03       		.uleb128 0x3
 1509 0053 0E       		.uleb128 0xe
 1510 0054 3A       		.uleb128 0x3a
 1511 0055 0B       		.uleb128 0xb
 1512 0056 3B       		.uleb128 0x3b
 1513 0057 05       		.uleb128 0x5
 1514 0058 49       		.uleb128 0x49
 1515 0059 13       		.uleb128 0x13
 1516 005a 00       		.byte	0
 1517 005b 00       		.byte	0
 1518 005c 09       		.uleb128 0x9
 1519 005d 17       		.uleb128 0x17
 1520 005e 01       		.byte	0x1
 1521 005f 0B       		.uleb128 0xb
 1522 0060 0B       		.uleb128 0xb
 1523 0061 3A       		.uleb128 0x3a
 1524 0062 0B       		.uleb128 0xb
 1525 0063 3B       		.uleb128 0x3b
 1526 0064 0B       		.uleb128 0xb
 1527 0065 01       		.uleb128 0x1
 1528 0066 13       		.uleb128 0x13
 1529 0067 00       		.byte	0
 1530 0068 00       		.byte	0
 1531 0069 0A       		.uleb128 0xa
 1532 006a 0D       		.uleb128 0xd
 1533 006b 00       		.byte	0
 1534 006c 03       		.uleb128 0x3
 1535 006d 0E       		.uleb128 0xe
 1536 006e 3A       		.uleb128 0x3a
 1537 006f 0B       		.uleb128 0xb
 1538 0070 3B       		.uleb128 0x3b
 1539 0071 0B       		.uleb128 0xb
ARM GAS  /var/folders/sw/pnvwfpq534b094x1wb62mk6m0000gn/T//ccpIbBJg.s 			page 28


 1540 0072 49       		.uleb128 0x49
 1541 0073 13       		.uleb128 0x13
 1542 0074 00       		.byte	0
 1543 0075 00       		.byte	0
 1544 0076 0B       		.uleb128 0xb
 1545 0077 01       		.uleb128 0x1
 1546 0078 01       		.byte	0x1
 1547 0079 49       		.uleb128 0x49
 1548 007a 13       		.uleb128 0x13
 1549 007b 01       		.uleb128 0x1
 1550 007c 13       		.uleb128 0x13
 1551 007d 00       		.byte	0
 1552 007e 00       		.byte	0
 1553 007f 0C       		.uleb128 0xc
 1554 0080 21       		.uleb128 0x21
 1555 0081 00       		.byte	0
 1556 0082 49       		.uleb128 0x49
 1557 0083 13       		.uleb128 0x13
 1558 0084 2F       		.uleb128 0x2f
 1559 0085 0B       		.uleb128 0xb
 1560 0086 00       		.byte	0
 1561 0087 00       		.byte	0
 1562 0088 0D       		.uleb128 0xd
 1563 0089 13       		.uleb128 0x13
 1564 008a 01       		.byte	0x1
 1565 008b 0B       		.uleb128 0xb
 1566 008c 0B       		.uleb128 0xb
 1567 008d 3A       		.uleb128 0x3a
 1568 008e 0B       		.uleb128 0xb
 1569 008f 3B       		.uleb128 0x3b
 1570 0090 0B       		.uleb128 0xb
 1571 0091 01       		.uleb128 0x1
 1572 0092 13       		.uleb128 0x13
 1573 0093 00       		.byte	0
 1574 0094 00       		.byte	0
 1575 0095 0E       		.uleb128 0xe
 1576 0096 0D       		.uleb128 0xd
 1577 0097 00       		.byte	0
 1578 0098 03       		.uleb128 0x3
 1579 0099 0E       		.uleb128 0xe
 1580 009a 3A       		.uleb128 0x3a
 1581 009b 0B       		.uleb128 0xb
 1582 009c 3B       		.uleb128 0x3b
 1583 009d 0B       		.uleb128 0xb
 1584 009e 49       		.uleb128 0x49
 1585 009f 13       		.uleb128 0x13
 1586 00a0 38       		.uleb128 0x38
 1587 00a1 0B       		.uleb128 0xb
 1588 00a2 00       		.byte	0
 1589 00a3 00       		.byte	0
 1590 00a4 0F       		.uleb128 0xf
 1591 00a5 13       		.uleb128 0x13
 1592 00a6 01       		.byte	0x1
 1593 00a7 03       		.uleb128 0x3
 1594 00a8 0E       		.uleb128 0xe
 1595 00a9 0B       		.uleb128 0xb
 1596 00aa 0B       		.uleb128 0xb
ARM GAS  /var/folders/sw/pnvwfpq534b094x1wb62mk6m0000gn/T//ccpIbBJg.s 			page 29


 1597 00ab 3A       		.uleb128 0x3a
 1598 00ac 0B       		.uleb128 0xb
 1599 00ad 3B       		.uleb128 0x3b
 1600 00ae 0B       		.uleb128 0xb
 1601 00af 01       		.uleb128 0x1
 1602 00b0 13       		.uleb128 0x13
 1603 00b1 00       		.byte	0
 1604 00b2 00       		.byte	0
 1605 00b3 10       		.uleb128 0x10
 1606 00b4 0D       		.uleb128 0xd
 1607 00b5 00       		.byte	0
 1608 00b6 03       		.uleb128 0x3
 1609 00b7 08       		.uleb128 0x8
 1610 00b8 3A       		.uleb128 0x3a
 1611 00b9 0B       		.uleb128 0xb
 1612 00ba 3B       		.uleb128 0x3b
 1613 00bb 0B       		.uleb128 0xb
 1614 00bc 49       		.uleb128 0x49
 1615 00bd 13       		.uleb128 0x13
 1616 00be 38       		.uleb128 0x38
 1617 00bf 0B       		.uleb128 0xb
 1618 00c0 00       		.byte	0
 1619 00c1 00       		.byte	0
 1620 00c2 11       		.uleb128 0x11
 1621 00c3 13       		.uleb128 0x13
 1622 00c4 01       		.byte	0x1
 1623 00c5 03       		.uleb128 0x3
 1624 00c6 0E       		.uleb128 0xe
 1625 00c7 0B       		.uleb128 0xb
 1626 00c8 05       		.uleb128 0x5
 1627 00c9 3A       		.uleb128 0x3a
 1628 00ca 0B       		.uleb128 0xb
 1629 00cb 3B       		.uleb128 0x3b
 1630 00cc 0B       		.uleb128 0xb
 1631 00cd 01       		.uleb128 0x1
 1632 00ce 13       		.uleb128 0x13
 1633 00cf 00       		.byte	0
 1634 00d0 00       		.byte	0
 1635 00d1 12       		.uleb128 0x12
 1636 00d2 0D       		.uleb128 0xd
 1637 00d3 00       		.byte	0
 1638 00d4 03       		.uleb128 0x3
 1639 00d5 0E       		.uleb128 0xe
 1640 00d6 3A       		.uleb128 0x3a
 1641 00d7 0B       		.uleb128 0xb
 1642 00d8 3B       		.uleb128 0x3b
 1643 00d9 0B       		.uleb128 0xb
 1644 00da 49       		.uleb128 0x49
 1645 00db 13       		.uleb128 0x13
 1646 00dc 38       		.uleb128 0x38
 1647 00dd 05       		.uleb128 0x5
 1648 00de 00       		.byte	0
 1649 00df 00       		.byte	0
 1650 00e0 13       		.uleb128 0x13
 1651 00e1 15       		.uleb128 0x15
 1652 00e2 00       		.byte	0
 1653 00e3 27       		.uleb128 0x27
ARM GAS  /var/folders/sw/pnvwfpq534b094x1wb62mk6m0000gn/T//ccpIbBJg.s 			page 30


 1654 00e4 19       		.uleb128 0x19
 1655 00e5 00       		.byte	0
 1656 00e6 00       		.byte	0
 1657 00e7 14       		.uleb128 0x14
 1658 00e8 15       		.uleb128 0x15
 1659 00e9 01       		.byte	0x1
 1660 00ea 27       		.uleb128 0x27
 1661 00eb 19       		.uleb128 0x19
 1662 00ec 49       		.uleb128 0x49
 1663 00ed 13       		.uleb128 0x13
 1664 00ee 01       		.uleb128 0x1
 1665 00ef 13       		.uleb128 0x13
 1666 00f0 00       		.byte	0
 1667 00f1 00       		.byte	0
 1668 00f2 15       		.uleb128 0x15
 1669 00f3 05       		.uleb128 0x5
 1670 00f4 00       		.byte	0
 1671 00f5 49       		.uleb128 0x49
 1672 00f6 13       		.uleb128 0x13
 1673 00f7 00       		.byte	0
 1674 00f8 00       		.byte	0
 1675 00f9 16       		.uleb128 0x16
 1676 00fa 26       		.uleb128 0x26
 1677 00fb 00       		.byte	0
 1678 00fc 49       		.uleb128 0x49
 1679 00fd 13       		.uleb128 0x13
 1680 00fe 00       		.byte	0
 1681 00ff 00       		.byte	0
 1682 0100 17       		.uleb128 0x17
 1683 0101 13       		.uleb128 0x13
 1684 0102 01       		.byte	0x1
 1685 0103 03       		.uleb128 0x3
 1686 0104 0E       		.uleb128 0xe
 1687 0105 0B       		.uleb128 0xb
 1688 0106 05       		.uleb128 0x5
 1689 0107 3A       		.uleb128 0x3a
 1690 0108 0B       		.uleb128 0xb
 1691 0109 3B       		.uleb128 0x3b
 1692 010a 05       		.uleb128 0x5
 1693 010b 01       		.uleb128 0x1
 1694 010c 13       		.uleb128 0x13
 1695 010d 00       		.byte	0
 1696 010e 00       		.byte	0
 1697 010f 18       		.uleb128 0x18
 1698 0110 0D       		.uleb128 0xd
 1699 0111 00       		.byte	0
 1700 0112 03       		.uleb128 0x3
 1701 0113 0E       		.uleb128 0xe
 1702 0114 3A       		.uleb128 0x3a
 1703 0115 0B       		.uleb128 0xb
 1704 0116 3B       		.uleb128 0x3b
 1705 0117 05       		.uleb128 0x5
 1706 0118 49       		.uleb128 0x49
 1707 0119 13       		.uleb128 0x13
 1708 011a 38       		.uleb128 0x38
 1709 011b 0B       		.uleb128 0xb
 1710 011c 00       		.byte	0
ARM GAS  /var/folders/sw/pnvwfpq534b094x1wb62mk6m0000gn/T//ccpIbBJg.s 			page 31


 1711 011d 00       		.byte	0
 1712 011e 19       		.uleb128 0x19
 1713 011f 0D       		.uleb128 0xd
 1714 0120 00       		.byte	0
 1715 0121 03       		.uleb128 0x3
 1716 0122 0E       		.uleb128 0xe
 1717 0123 3A       		.uleb128 0x3a
 1718 0124 0B       		.uleb128 0xb
 1719 0125 3B       		.uleb128 0x3b
 1720 0126 05       		.uleb128 0x5
 1721 0127 49       		.uleb128 0x49
 1722 0128 13       		.uleb128 0x13
 1723 0129 38       		.uleb128 0x38
 1724 012a 05       		.uleb128 0x5
 1725 012b 00       		.byte	0
 1726 012c 00       		.byte	0
 1727 012d 1A       		.uleb128 0x1a
 1728 012e 13       		.uleb128 0x13
 1729 012f 01       		.byte	0x1
 1730 0130 03       		.uleb128 0x3
 1731 0131 0E       		.uleb128 0xe
 1732 0132 0B       		.uleb128 0xb
 1733 0133 0B       		.uleb128 0xb
 1734 0134 3A       		.uleb128 0x3a
 1735 0135 0B       		.uleb128 0xb
 1736 0136 3B       		.uleb128 0x3b
 1737 0137 05       		.uleb128 0x5
 1738 0138 01       		.uleb128 0x1
 1739 0139 13       		.uleb128 0x13
 1740 013a 00       		.byte	0
 1741 013b 00       		.byte	0
 1742 013c 1B       		.uleb128 0x1b
 1743 013d 13       		.uleb128 0x13
 1744 013e 01       		.byte	0x1
 1745 013f 0B       		.uleb128 0xb
 1746 0140 0B       		.uleb128 0xb
 1747 0141 3A       		.uleb128 0x3a
 1748 0142 0B       		.uleb128 0xb
 1749 0143 3B       		.uleb128 0x3b
 1750 0144 05       		.uleb128 0x5
 1751 0145 01       		.uleb128 0x1
 1752 0146 13       		.uleb128 0x13
 1753 0147 00       		.byte	0
 1754 0148 00       		.byte	0
 1755 0149 1C       		.uleb128 0x1c
 1756 014a 17       		.uleb128 0x17
 1757 014b 01       		.byte	0x1
 1758 014c 0B       		.uleb128 0xb
 1759 014d 0B       		.uleb128 0xb
 1760 014e 3A       		.uleb128 0x3a
 1761 014f 0B       		.uleb128 0xb
 1762 0150 3B       		.uleb128 0x3b
 1763 0151 05       		.uleb128 0x5
 1764 0152 01       		.uleb128 0x1
 1765 0153 13       		.uleb128 0x13
 1766 0154 00       		.byte	0
 1767 0155 00       		.byte	0
ARM GAS  /var/folders/sw/pnvwfpq534b094x1wb62mk6m0000gn/T//ccpIbBJg.s 			page 32


 1768 0156 1D       		.uleb128 0x1d
 1769 0157 0D       		.uleb128 0xd
 1770 0158 00       		.byte	0
 1771 0159 03       		.uleb128 0x3
 1772 015a 0E       		.uleb128 0xe
 1773 015b 3A       		.uleb128 0x3a
 1774 015c 0B       		.uleb128 0xb
 1775 015d 3B       		.uleb128 0x3b
 1776 015e 05       		.uleb128 0x5
 1777 015f 49       		.uleb128 0x49
 1778 0160 13       		.uleb128 0x13
 1779 0161 00       		.byte	0
 1780 0162 00       		.byte	0
 1781 0163 1E       		.uleb128 0x1e
 1782 0164 15       		.uleb128 0x15
 1783 0165 01       		.byte	0x1
 1784 0166 27       		.uleb128 0x27
 1785 0167 19       		.uleb128 0x19
 1786 0168 01       		.uleb128 0x1
 1787 0169 13       		.uleb128 0x13
 1788 016a 00       		.byte	0
 1789 016b 00       		.byte	0
 1790 016c 1F       		.uleb128 0x1f
 1791 016d 34       		.uleb128 0x34
 1792 016e 00       		.byte	0
 1793 016f 03       		.uleb128 0x3
 1794 0170 0E       		.uleb128 0xe
 1795 0171 3A       		.uleb128 0x3a
 1796 0172 0B       		.uleb128 0xb
 1797 0173 3B       		.uleb128 0x3b
 1798 0174 05       		.uleb128 0x5
 1799 0175 49       		.uleb128 0x49
 1800 0176 13       		.uleb128 0x13
 1801 0177 3F       		.uleb128 0x3f
 1802 0178 19       		.uleb128 0x19
 1803 0179 3C       		.uleb128 0x3c
 1804 017a 19       		.uleb128 0x19
 1805 017b 00       		.byte	0
 1806 017c 00       		.byte	0
 1807 017d 20       		.uleb128 0x20
 1808 017e 34       		.uleb128 0x34
 1809 017f 00       		.byte	0
 1810 0180 03       		.uleb128 0x3
 1811 0181 0E       		.uleb128 0xe
 1812 0182 3A       		.uleb128 0x3a
 1813 0183 0B       		.uleb128 0xb
 1814 0184 3B       		.uleb128 0x3b
 1815 0185 0B       		.uleb128 0xb
 1816 0186 49       		.uleb128 0x49
 1817 0187 13       		.uleb128 0x13
 1818 0188 3F       		.uleb128 0x3f
 1819 0189 19       		.uleb128 0x19
 1820 018a 3C       		.uleb128 0x3c
 1821 018b 19       		.uleb128 0x19
 1822 018c 00       		.byte	0
 1823 018d 00       		.byte	0
 1824 018e 21       		.uleb128 0x21
ARM GAS  /var/folders/sw/pnvwfpq534b094x1wb62mk6m0000gn/T//ccpIbBJg.s 			page 33


 1825 018f 04       		.uleb128 0x4
 1826 0190 01       		.byte	0x1
 1827 0191 03       		.uleb128 0x3
 1828 0192 0E       		.uleb128 0xe
 1829 0193 3E       		.uleb128 0x3e
 1830 0194 0B       		.uleb128 0xb
 1831 0195 0B       		.uleb128 0xb
 1832 0196 0B       		.uleb128 0xb
 1833 0197 49       		.uleb128 0x49
 1834 0198 13       		.uleb128 0x13
 1835 0199 3A       		.uleb128 0x3a
 1836 019a 0B       		.uleb128 0xb
 1837 019b 3B       		.uleb128 0x3b
 1838 019c 05       		.uleb128 0x5
 1839 019d 01       		.uleb128 0x1
 1840 019e 13       		.uleb128 0x13
 1841 019f 00       		.byte	0
 1842 01a0 00       		.byte	0
 1843 01a1 22       		.uleb128 0x22
 1844 01a2 28       		.uleb128 0x28
 1845 01a3 00       		.byte	0
 1846 01a4 03       		.uleb128 0x3
 1847 01a5 0E       		.uleb128 0xe
 1848 01a6 1C       		.uleb128 0x1c
 1849 01a7 0D       		.uleb128 0xd
 1850 01a8 00       		.byte	0
 1851 01a9 00       		.byte	0
 1852 01aa 23       		.uleb128 0x23
 1853 01ab 28       		.uleb128 0x28
 1854 01ac 00       		.byte	0
 1855 01ad 03       		.uleb128 0x3
 1856 01ae 0E       		.uleb128 0xe
 1857 01af 1C       		.uleb128 0x1c
 1858 01b0 0B       		.uleb128 0xb
 1859 01b1 00       		.byte	0
 1860 01b2 00       		.byte	0
 1861 01b3 24       		.uleb128 0x24
 1862 01b4 2E       		.uleb128 0x2e
 1863 01b5 01       		.byte	0x1
 1864 01b6 3F       		.uleb128 0x3f
 1865 01b7 19       		.uleb128 0x19
 1866 01b8 03       		.uleb128 0x3
 1867 01b9 0E       		.uleb128 0xe
 1868 01ba 3A       		.uleb128 0x3a
 1869 01bb 0B       		.uleb128 0xb
 1870 01bc 3B       		.uleb128 0x3b
 1871 01bd 0B       		.uleb128 0xb
 1872 01be 27       		.uleb128 0x27
 1873 01bf 19       		.uleb128 0x19
 1874 01c0 11       		.uleb128 0x11
 1875 01c1 01       		.uleb128 0x1
 1876 01c2 12       		.uleb128 0x12
 1877 01c3 06       		.uleb128 0x6
 1878 01c4 40       		.uleb128 0x40
 1879 01c5 18       		.uleb128 0x18
 1880 01c6 9642     		.uleb128 0x2116
 1881 01c8 19       		.uleb128 0x19
ARM GAS  /var/folders/sw/pnvwfpq534b094x1wb62mk6m0000gn/T//ccpIbBJg.s 			page 34


 1882 01c9 01       		.uleb128 0x1
 1883 01ca 13       		.uleb128 0x13
 1884 01cb 00       		.byte	0
 1885 01cc 00       		.byte	0
 1886 01cd 25       		.uleb128 0x25
 1887 01ce 34       		.uleb128 0x34
 1888 01cf 00       		.byte	0
 1889 01d0 03       		.uleb128 0x3
 1890 01d1 0E       		.uleb128 0xe
 1891 01d2 3A       		.uleb128 0x3a
 1892 01d3 0B       		.uleb128 0xb
 1893 01d4 3B       		.uleb128 0x3b
 1894 01d5 0B       		.uleb128 0xb
 1895 01d6 49       		.uleb128 0x49
 1896 01d7 13       		.uleb128 0x13
 1897 01d8 02       		.uleb128 0x2
 1898 01d9 18       		.uleb128 0x18
 1899 01da 00       		.byte	0
 1900 01db 00       		.byte	0
 1901 01dc 26       		.uleb128 0x26
 1902 01dd 0B       		.uleb128 0xb
 1903 01de 01       		.byte	0x1
 1904 01df 55       		.uleb128 0x55
 1905 01e0 17       		.uleb128 0x17
 1906 01e1 01       		.uleb128 0x1
 1907 01e2 13       		.uleb128 0x13
 1908 01e3 00       		.byte	0
 1909 01e4 00       		.byte	0
 1910 01e5 27       		.uleb128 0x27
 1911 01e6 34       		.uleb128 0x34
 1912 01e7 00       		.byte	0
 1913 01e8 03       		.uleb128 0x3
 1914 01e9 08       		.uleb128 0x8
 1915 01ea 3A       		.uleb128 0x3a
 1916 01eb 0B       		.uleb128 0xb
 1917 01ec 3B       		.uleb128 0x3b
 1918 01ed 0B       		.uleb128 0xb
 1919 01ee 49       		.uleb128 0x49
 1920 01ef 13       		.uleb128 0x13
 1921 01f0 02       		.uleb128 0x2
 1922 01f1 17       		.uleb128 0x17
 1923 01f2 00       		.byte	0
 1924 01f3 00       		.byte	0
 1925 01f4 28       		.uleb128 0x28
 1926 01f5 0B       		.uleb128 0xb
 1927 01f6 01       		.byte	0x1
 1928 01f7 55       		.uleb128 0x55
 1929 01f8 17       		.uleb128 0x17
 1930 01f9 00       		.byte	0
 1931 01fa 00       		.byte	0
 1932 01fb 29       		.uleb128 0x29
 1933 01fc 34       		.uleb128 0x34
 1934 01fd 00       		.byte	0
 1935 01fe 03       		.uleb128 0x3
 1936 01ff 0E       		.uleb128 0xe
 1937 0200 3A       		.uleb128 0x3a
 1938 0201 0B       		.uleb128 0xb
ARM GAS  /var/folders/sw/pnvwfpq534b094x1wb62mk6m0000gn/T//ccpIbBJg.s 			page 35


 1939 0202 3B       		.uleb128 0x3b
 1940 0203 0B       		.uleb128 0xb
 1941 0204 49       		.uleb128 0x49
 1942 0205 13       		.uleb128 0x13
 1943 0206 02       		.uleb128 0x2
 1944 0207 17       		.uleb128 0x17
 1945 0208 00       		.byte	0
 1946 0209 00       		.byte	0
 1947 020a 2A       		.uleb128 0x2a
 1948 020b 898201   		.uleb128 0x4109
 1949 020e 00       		.byte	0
 1950 020f 11       		.uleb128 0x11
 1951 0210 01       		.uleb128 0x1
 1952 0211 31       		.uleb128 0x31
 1953 0212 13       		.uleb128 0x13
 1954 0213 00       		.byte	0
 1955 0214 00       		.byte	0
 1956 0215 2B       		.uleb128 0x2b
 1957 0216 898201   		.uleb128 0x4109
 1958 0219 01       		.byte	0x1
 1959 021a 11       		.uleb128 0x11
 1960 021b 01       		.uleb128 0x1
 1961 021c 31       		.uleb128 0x31
 1962 021d 13       		.uleb128 0x13
 1963 021e 01       		.uleb128 0x1
 1964 021f 13       		.uleb128 0x13
 1965 0220 00       		.byte	0
 1966 0221 00       		.byte	0
 1967 0222 2C       		.uleb128 0x2c
 1968 0223 8A8201   		.uleb128 0x410a
 1969 0226 00       		.byte	0
 1970 0227 02       		.uleb128 0x2
 1971 0228 18       		.uleb128 0x18
 1972 0229 9142     		.uleb128 0x2111
 1973 022b 18       		.uleb128 0x18
 1974 022c 00       		.byte	0
 1975 022d 00       		.byte	0
 1976 022e 2D       		.uleb128 0x2d
 1977 022f 2E       		.uleb128 0x2e
 1978 0230 00       		.byte	0
 1979 0231 3F       		.uleb128 0x3f
 1980 0232 19       		.uleb128 0x19
 1981 0233 3C       		.uleb128 0x3c
 1982 0234 19       		.uleb128 0x19
 1983 0235 6E       		.uleb128 0x6e
 1984 0236 08       		.uleb128 0x8
 1985 0237 03       		.uleb128 0x3
 1986 0238 08       		.uleb128 0x8
 1987 0239 3A       		.uleb128 0x3a
 1988 023a 0B       		.uleb128 0xb
 1989 023b 3B       		.uleb128 0x3b
 1990 023c 0B       		.uleb128 0xb
 1991 023d 00       		.byte	0
 1992 023e 00       		.byte	0
 1993 023f 2E       		.uleb128 0x2e
 1994 0240 2E       		.uleb128 0x2e
 1995 0241 00       		.byte	0
ARM GAS  /var/folders/sw/pnvwfpq534b094x1wb62mk6m0000gn/T//ccpIbBJg.s 			page 36


 1996 0242 3F       		.uleb128 0x3f
 1997 0243 19       		.uleb128 0x19
 1998 0244 3C       		.uleb128 0x3c
 1999 0245 19       		.uleb128 0x19
 2000 0246 6E       		.uleb128 0x6e
 2001 0247 0E       		.uleb128 0xe
 2002 0248 03       		.uleb128 0x3
 2003 0249 0E       		.uleb128 0xe
 2004 024a 3A       		.uleb128 0x3a
 2005 024b 0B       		.uleb128 0xb
 2006 024c 3B       		.uleb128 0x3b
 2007 024d 0B       		.uleb128 0xb
 2008 024e 00       		.byte	0
 2009 024f 00       		.byte	0
 2010 0250 2F       		.uleb128 0x2f
 2011 0251 2E       		.uleb128 0x2e
 2012 0252 00       		.byte	0
 2013 0253 3F       		.uleb128 0x3f
 2014 0254 19       		.uleb128 0x19
 2015 0255 3C       		.uleb128 0x3c
 2016 0256 19       		.uleb128 0x19
 2017 0257 6E       		.uleb128 0x6e
 2018 0258 0E       		.uleb128 0xe
 2019 0259 03       		.uleb128 0x3
 2020 025a 0E       		.uleb128 0xe
 2021 025b 3A       		.uleb128 0x3a
 2022 025c 0B       		.uleb128 0xb
 2023 025d 3B       		.uleb128 0x3b
 2024 025e 0B       		.uleb128 0xb
 2025 025f 6E       		.uleb128 0x6e
 2026 0260 0E       		.uleb128 0xe
 2027 0261 00       		.byte	0
 2028 0262 00       		.byte	0
 2029 0263 30       		.uleb128 0x30
 2030 0264 2E       		.uleb128 0x2e
 2031 0265 00       		.byte	0
 2032 0266 3F       		.uleb128 0x3f
 2033 0267 19       		.uleb128 0x19
 2034 0268 3C       		.uleb128 0x3c
 2035 0269 19       		.uleb128 0x19
 2036 026a 6E       		.uleb128 0x6e
 2037 026b 0E       		.uleb128 0xe
 2038 026c 03       		.uleb128 0x3
 2039 026d 0E       		.uleb128 0xe
 2040 026e 00       		.byte	0
 2041 026f 00       		.byte	0
 2042 0270 00       		.byte	0
 2043              		.section	.debug_loc,"",%progbits
 2044              	.Ldebug_loc0:
 2045              	.LLST0:
 2046 0000 22000000 		.4byte	.LVL0
 2047 0004 38000000 		.4byte	.LVL1
 2048 0008 0300     		.2byte	0x3
 2049 000a 08       		.byte	0x8
 2050 000b 64       		.byte	0x64
 2051 000c 9F       		.byte	0x9f
 2052 000d 00000000 		.4byte	0
ARM GAS  /var/folders/sw/pnvwfpq534b094x1wb62mk6m0000gn/T//ccpIbBJg.s 			page 37


 2053 0011 00000000 		.4byte	0
 2054              	.LLST1:
 2055 0015 38000000 		.4byte	.LVL1
 2056 0019 40000000 		.4byte	.LVL2
 2057 001d 0200     		.2byte	0x2
 2058 001f 90       		.byte	0x90
 2059 0020 51       		.uleb128 0x51
 2060 0021 48000000 		.4byte	.LVL3
 2061 0025 38010000 		.4byte	.LFE3
 2062 0029 0200     		.2byte	0x2
 2063 002b 90       		.byte	0x90
 2064 002c 51       		.uleb128 0x51
 2065 002d 00000000 		.4byte	0
 2066 0031 00000000 		.4byte	0
 2067              		.section	.debug_aranges,"",%progbits
 2068 0000 1C000000 		.4byte	0x1c
 2069 0004 0200     		.2byte	0x2
 2070 0006 00000000 		.4byte	.Ldebug_info0
 2071 000a 04       		.byte	0x4
 2072 000b 00       		.byte	0
 2073 000c 0000     		.2byte	0
 2074 000e 0000     		.2byte	0
 2075 0010 00000000 		.4byte	.LFB3
 2076 0014 38010000 		.4byte	.LFE3-.LFB3
 2077 0018 00000000 		.4byte	0
 2078 001c 00000000 		.4byte	0
 2079              		.section	.debug_ranges,"",%progbits
 2080              	.Ldebug_ranges0:
 2081 0000 26000000 		.4byte	.LBB2
 2082 0004 2E000000 		.4byte	.LBE2
 2083 0008 40000000 		.4byte	.LBB5
 2084 000c 0E010000 		.4byte	.LBE5
 2085 0010 00000000 		.4byte	0
 2086 0014 00000000 		.4byte	0
 2087 0018 26000000 		.4byte	.LBB3
 2088 001c 2E000000 		.4byte	.LBE3
 2089 0020 40000000 		.4byte	.LBB4
 2090 0024 0A010000 		.4byte	.LBE4
 2091 0028 00000000 		.4byte	0
 2092 002c 00000000 		.4byte	0
 2093 0030 00000000 		.4byte	.LFB3
 2094 0034 38010000 		.4byte	.LFE3
 2095 0038 00000000 		.4byte	0
 2096 003c 00000000 		.4byte	0
 2097              		.section	.debug_line,"",%progbits
 2098              	.Ldebug_line0:
 2099 0000 06030000 		.section	.debug_str,"MS",%progbits,1
 2099      02009402 
 2099      00000201 
 2099      FB0E0D00 
 2099      01010101 
 2100              	.LASF39:
 2101 0000 5F64736F 		.ascii	"_dso_handle\000"
 2101      5F68616E 
 2101      646C6500 
 2102              	.LASF47:
 2103 000c 5F73697A 		.ascii	"_size\000"
ARM GAS  /var/folders/sw/pnvwfpq534b094x1wb62mk6m0000gn/T//ccpIbBJg.s 			page 38


 2103      6500
 2104              	.LASF135:
 2105 0012 7472616A 		.ascii	"trajectoire.c\000"
 2105      6563746F 
 2105      6972652E 
 2105      6300
 2106              	.LASF92:
 2107 0020 5F72616E 		.ascii	"_rand48\000"
 2107      64343800 
 2108              	.LASF71:
 2109 0028 5F656D65 		.ascii	"_emergency\000"
 2109      7267656E 
 2109      637900
 2110              	.LASF10:
 2111 0033 5F5F7569 		.ascii	"__uint8_t\000"
 2111      6E74385F 
 2111      7400
 2112              	.LASF108:
 2113 003d 5F676574 		.ascii	"_getdate_err\000"
 2113      64617465 
 2113      5F657272 
 2113      00
 2114              	.LASF61:
 2115 004a 5F646174 		.ascii	"_data\000"
 2115      6100
 2116              	.LASF112:
 2117 0050 5F776372 		.ascii	"_wcrtomb_state\000"
 2117      746F6D62 
 2117      5F737461 
 2117      746500
 2118              	.LASF113:
 2119 005f 5F776373 		.ascii	"_wcsrtombs_state\000"
 2119      72746F6D 
 2119      62735F73 
 2119      74617465 
 2119      00
 2120              	.LASF131:
 2121 0070 706F735F 		.ascii	"pos_pol\000"
 2121      706F6C00 
 2122              	.LASF140:
 2123 0078 5F5F6275 		.ascii	"__builtin_memset\000"
 2123      696C7469 
 2123      6E5F6D65 
 2123      6D736574 
 2123      00
 2124              	.LASF7:
 2125 0089 6C6F6E67 		.ascii	"long long unsigned int\000"
 2125      206C6F6E 
 2125      6720756E 
 2125      7369676E 
 2125      65642069 
 2126              	.LASF129:
 2127 00a0 5F5F6664 		.ascii	"__fdlibm_posix\000"
 2127      6C69626D 
 2127      5F706F73 
 2127      697800
 2128              	.LASF51:
ARM GAS  /var/folders/sw/pnvwfpq534b094x1wb62mk6m0000gn/T//ccpIbBJg.s 			page 39


 2129 00af 5F6C6266 		.ascii	"_lbfsize\000"
 2129      73697A65 
 2129      00
 2130              	.LASF119:
 2131 00b8 5F5F6C6F 		.ascii	"__locale_t\000"
 2131      63616C65 
 2131      5F7400
 2132              	.LASF128:
 2133 00c3 5F5F6664 		.ascii	"__fdlibm_xopen\000"
 2133      6C69626D 
 2133      5F786F70 
 2133      656E00
 2134              	.LASF110:
 2135 00d2 5F6D6272 		.ascii	"_mbrtowc_state\000"
 2135      746F7763 
 2135      5F737461 
 2135      746500
 2136              	.LASF28:
 2137 00e1 5F5F746D 		.ascii	"__tm_sec\000"
 2137      5F736563 
 2137      00
 2138              	.LASF6:
 2139 00ea 6C6F6E67 		.ascii	"long long int\000"
 2139      206C6F6E 
 2139      6720696E 
 2139      7400
 2140              	.LASF0:
 2141 00f8 7369676E 		.ascii	"signed char\000"
 2141      65642063 
 2141      68617200 
 2142              	.LASF57:
 2143 0104 5F756275 		.ascii	"_ubuf\000"
 2143      6600
 2144              	.LASF46:
 2145 010a 5F626173 		.ascii	"_base\000"
 2145      6500
 2146              	.LASF30:
 2147 0110 5F5F746D 		.ascii	"__tm_hour\000"
 2147      5F686F75 
 2147      7200
 2148              	.LASF86:
 2149 011a 5F5F7366 		.ascii	"__sf\000"
 2149      00
 2150              	.LASF37:
 2151 011f 5F6F6E5F 		.ascii	"_on_exit_args\000"
 2151      65786974 
 2151      5F617267 
 2151      7300
 2152              	.LASF52:
 2153 012d 5F636F6F 		.ascii	"_cookie\000"
 2153      6B696500 
 2154              	.LASF85:
 2155 0135 5F5F7367 		.ascii	"__sglue\000"
 2155      6C756500 
 2156              	.LASF4:
 2157 013d 6C6F6E67 		.ascii	"long int\000"
 2157      20696E74 
ARM GAS  /var/folders/sw/pnvwfpq534b094x1wb62mk6m0000gn/T//ccpIbBJg.s 			page 40


 2157      00
 2158              	.LASF49:
 2159 0146 5F666C61 		.ascii	"_flags\000"
 2159      677300
 2160              	.LASF41:
 2161 014d 5F69735F 		.ascii	"_is_cxa\000"
 2161      63786100 
 2162              	.LASF67:
 2163 0155 5F737464 		.ascii	"_stdin\000"
 2163      696E00
 2164              	.LASF127:
 2165 015c 5F5F6664 		.ascii	"__fdlibm_svid\000"
 2165      6C69626D 
 2165      5F737669 
 2165      6400
 2166              	.LASF59:
 2167 016a 5F626C6B 		.ascii	"_blksize\000"
 2167      73697A65 
 2167      00
 2168              	.LASF125:
 2169 0173 646F7562 		.ascii	"double\000"
 2169      6C6500
 2170              	.LASF81:
 2171 017a 5F637674 		.ascii	"_cvtbuf\000"
 2171      62756600 
 2172              	.LASF60:
 2173 0182 5F6F6666 		.ascii	"_offset\000"
 2173      73657400 
 2174              	.LASF111:
 2175 018a 5F6D6273 		.ascii	"_mbsrtowcs_state\000"
 2175      72746F77 
 2175      63735F73 
 2175      74617465 
 2175      00
 2176              	.LASF109:
 2177 019b 5F6D6272 		.ascii	"_mbrlen_state\000"
 2177      6C656E5F 
 2177      73746174 
 2177      6500
 2178              	.LASF38:
 2179 01a9 5F666E61 		.ascii	"_fnargs\000"
 2179      72677300 
 2180              	.LASF44:
 2181 01b1 5F666E73 		.ascii	"_fns\000"
 2181      00
 2182              	.LASF138:
 2183 01b6 636F6E76 		.ascii	"convert_pos\000"
 2183      6572745F 
 2183      706F7300 
 2184              	.LASF24:
 2185 01c2 5F736967 		.ascii	"_sign\000"
 2185      6E00
 2186              	.LASF20:
 2187 01c8 5F666C6F 		.ascii	"_flock_t\000"
 2187      636B5F74 
 2187      00
 2188              	.LASF69:
ARM GAS  /var/folders/sw/pnvwfpq534b094x1wb62mk6m0000gn/T//ccpIbBJg.s 			page 41


 2189 01d1 5F737464 		.ascii	"_stderr\000"
 2189      65727200 
 2190              	.LASF26:
 2191 01d9 5F426967 		.ascii	"_Bigint\000"
 2191      696E7400 
 2192              	.LASF100:
 2193 01e1 5F67616D 		.ascii	"_gamma_signgam\000"
 2193      6D615F73 
 2193      69676E67 
 2193      616D00
 2194              	.LASF53:
 2195 01f0 5F726561 		.ascii	"_read\000"
 2195      6400
 2196              	.LASF77:
 2197 01f6 5F726573 		.ascii	"_result_k\000"
 2197      756C745F 
 2197      6B00
 2198              	.LASF27:
 2199 0200 5F5F746D 		.ascii	"__tm\000"
 2199      00
 2200              	.LASF8:
 2201 0205 756E7369 		.ascii	"unsigned int\000"
 2201      676E6564 
 2201      20696E74 
 2201      00
 2202              	.LASF134:
 2203 0212 474E5520 		.ascii	"GNU C11 7.2.1 20170904 (release) [ARM/embedded-7-br"
 2203      43313120 
 2203      372E322E 
 2203      31203230 
 2203      31373039 
 2204 0245 616E6368 		.ascii	"anch revision 255204] -mcpu=cortex-m4 -mfloat-abi=h"
 2204      20726576 
 2204      6973696F 
 2204      6E203235 
 2204      35323034 
 2205 0278 61726420 		.ascii	"ard -mfpu=fpv4-sp-d16 -mno-thumb-interwork -mthumb "
 2205      2D6D6670 
 2205      753D6670 
 2205      76342D73 
 2205      702D6431 
 2206 02ab 2D676764 		.ascii	"-ggdb -O2 -fomit-frame-pointer -falign-functions=16"
 2206      62202D4F 
 2206      32202D66 
 2206      6F6D6974 
 2206      2D667261 
 2207 02de 202D666E 		.ascii	" -fno-strict-aliasing -fstack-protector-all -ffunct"
 2207      6F2D7374 
 2207      72696374 
 2207      2D616C69 
 2207      6173696E 
 2208 0311 696F6E2D 		.ascii	"ion-sections -fdata-sections -fno-common -fsingle-p"
 2208      73656374 
 2208      696F6E73 
 2208      202D6664 
 2208      6174612D 
 2209 0344 72656369 		.ascii	"recision-constant\000"
ARM GAS  /var/folders/sw/pnvwfpq534b094x1wb62mk6m0000gn/T//ccpIbBJg.s 			page 42


 2209      73696F6E 
 2209      2D636F6E 
 2209      7374616E 
 2209      7400
 2210              	.LASF16:
 2211 0356 5F5F7763 		.ascii	"__wchb\000"
 2211      686200
 2212              	.LASF68:
 2213 035d 5F737464 		.ascii	"_stdout\000"
 2213      6F757400 
 2214              	.LASF80:
 2215 0365 5F637674 		.ascii	"_cvtlen\000"
 2215      6C656E00 
 2216              	.LASF5:
 2217 036d 6C6F6E67 		.ascii	"long unsigned int\000"
 2217      20756E73 
 2217      69676E65 
 2217      6420696E 
 2217      7400
 2218              	.LASF50:
 2219 037f 5F66696C 		.ascii	"_file\000"
 2219      6500
 2220              	.LASF132:
 2221 0385 725F6D65 		.ascii	"r_mem\000"
 2221      6D00
 2222              	.LASF90:
 2223 038b 5F6E696F 		.ascii	"_niobs\000"
 2223      627300
 2224              	.LASF3:
 2225 0392 73686F72 		.ascii	"short unsigned int\000"
 2225      7420756E 
 2225      7369676E 
 2225      65642069 
 2225      6E7400
 2226              	.LASF83:
 2227 03a5 5F617465 		.ascii	"_atexit0\000"
 2227      78697430 
 2227      00
 2228              	.LASF107:
 2229 03ae 5F736967 		.ascii	"_signal_buf\000"
 2229      6E616C5F 
 2229      62756600 
 2230              	.LASF98:
 2231 03ba 5F617363 		.ascii	"_asctime_buf\000"
 2231      74696D65 
 2231      5F627566 
 2231      00
 2232              	.LASF76:
 2233 03c7 5F726573 		.ascii	"_result\000"
 2233      756C7400 
 2234              	.LASF15:
 2235 03cf 5F5F7763 		.ascii	"__wch\000"
 2235      6800
 2236              	.LASF11:
 2237 03d5 5F4C4F43 		.ascii	"_LOCK_T\000"
 2237      4B5F5400 
 2238              	.LASF14:
ARM GAS  /var/folders/sw/pnvwfpq534b094x1wb62mk6m0000gn/T//ccpIbBJg.s 			page 43


 2239 03dd 77696E74 		.ascii	"wint_t\000"
 2239      5F7400
 2240              	.LASF62:
 2241 03e4 5F6C6F63 		.ascii	"_lock\000"
 2241      6B00
 2242              	.LASF64:
 2243 03ea 5F666C61 		.ascii	"_flags2\000"
 2243      67733200 
 2244              	.LASF54:
 2245 03f2 5F777269 		.ascii	"_write\000"
 2245      746500
 2246              	.LASF33:
 2247 03f9 5F5F746D 		.ascii	"__tm_year\000"
 2247      5F796561 
 2247      7200
 2248              	.LASF9:
 2249 0403 6C6F6E67 		.ascii	"long double\000"
 2249      20646F75 
 2249      626C6500 
 2250              	.LASF115:
 2251 040f 5F6E6578 		.ascii	"_nextf\000"
 2251      746600
 2252              	.LASF32:
 2253 0416 5F5F746D 		.ascii	"__tm_mon\000"
 2253      5F6D6F6E 
 2253      00
 2254              	.LASF42:
 2255 041f 5F617465 		.ascii	"_atexit\000"
 2255      78697400 
 2256              	.LASF123:
 2257 0427 7375626F 		.ascii	"suboptarg\000"
 2257      70746172 
 2257      6700
 2258              	.LASF74:
 2259 0431 5F5F7364 		.ascii	"__sdidinit\000"
 2259      6964696E 
 2259      697400
 2260              	.LASF12:
 2261 043c 5F6F6666 		.ascii	"_off_t\000"
 2261      5F7400
 2262              	.LASF124:
 2263 0443 666C6F61 		.ascii	"float\000"
 2263      7400
 2264              	.LASF79:
 2265 0449 5F667265 		.ascii	"_freelist\000"
 2265      656C6973 
 2265      7400
 2266              	.LASF136:
 2267 0453 2F557365 		.ascii	"/Users/maximepoffet/Library/Mobile Documents/com~ap"
 2267      72732F6D 
 2267      6178696D 
 2267      65706F66 
 2267      6665742F 
 2268 0486 706C657E 		.ascii	"ple~CloudDocs/1_MAXIME/8_GITHUB/projet-microinfo/Pr"
 2268      436C6F75 
 2268      64446F63 
 2268      732F315F 
ARM GAS  /var/folders/sw/pnvwfpq534b094x1wb62mk6m0000gn/T//ccpIbBJg.s 			page 44


 2268      4D415849 
 2269 04b9 6F6A6563 		.ascii	"oject_Dancer/Dancer/\000"
 2269      745F4461 
 2269      6E636572 
 2269      2F44616E 
 2269      6365722F 
 2270              	.LASF105:
 2271 04ce 5F776374 		.ascii	"_wctomb_state\000"
 2271      6F6D625F 
 2271      73746174 
 2271      6500
 2272              	.LASF1:
 2273 04dc 756E7369 		.ascii	"unsigned char\000"
 2273      676E6564 
 2273      20636861 
 2273      7200
 2274              	.LASF82:
 2275 04ea 5F6E6577 		.ascii	"_new\000"
 2275      00
 2276              	.LASF114:
 2277 04ef 5F685F65 		.ascii	"_h_errno\000"
 2277      72726E6F 
 2277      00
 2278              	.LASF2:
 2279 04f8 73686F72 		.ascii	"short int\000"
 2279      7420696E 
 2279      7400
 2280              	.LASF35:
 2281 0502 5F5F746D 		.ascii	"__tm_yday\000"
 2281      5F796461 
 2281      7900
 2282              	.LASF45:
 2283 050c 5F5F7362 		.ascii	"__sbuf\000"
 2283      756600
 2284              	.LASF91:
 2285 0513 5F696F62 		.ascii	"_iobs\000"
 2285      7300
 2286              	.LASF88:
 2287 0519 5F5F4649 		.ascii	"__FILE\000"
 2287      4C4500
 2288              	.LASF19:
 2289 0520 5F6D6273 		.ascii	"_mbstate_t\000"
 2289      74617465 
 2289      5F7400
 2290              	.LASF48:
 2291 052b 5F5F7346 		.ascii	"__sFILE\000"
 2291      494C4500 
 2292              	.LASF63:
 2293 0533 5F6D6273 		.ascii	"_mbstate\000"
 2293      74617465 
 2293      00
 2294              	.LASF101:
 2295 053c 5F72616E 		.ascii	"_rand_next\000"
 2295      645F6E65 
 2295      787400
 2296              	.LASF103:
 2297 0547 5F6D626C 		.ascii	"_mblen_state\000"
ARM GAS  /var/folders/sw/pnvwfpq534b094x1wb62mk6m0000gn/T//ccpIbBJg.s 			page 45


 2297      656E5F73 
 2297      74617465 
 2297      00
 2298              	.LASF70:
 2299 0554 5F696E63 		.ascii	"_inc\000"
 2299      00
 2300              	.LASF43:
 2301 0559 5F696E64 		.ascii	"_ind\000"
 2301      00
 2302              	.LASF73:
 2303 055e 5F6C6F63 		.ascii	"_locale\000"
 2303      616C6500 
 2304              	.LASF75:
 2305 0566 5F5F636C 		.ascii	"__cleanup\000"
 2305      65616E75 
 2305      7000
 2306              	.LASF72:
 2307 0570 5F756E73 		.ascii	"_unspecified_locale_info\000"
 2307      70656369 
 2307      66696564 
 2307      5F6C6F63 
 2307      616C655F 
 2308              	.LASF141:
 2309 0589 5F5F7374 		.ascii	"__stack_chk_fail\000"
 2309      61636B5F 
 2309      63686B5F 
 2309      6661696C 
 2309      00
 2310              	.LASF23:
 2311 059a 5F6D6178 		.ascii	"_maxwds\000"
 2311      77647300 
 2312              	.LASF65:
 2313 05a2 5F726565 		.ascii	"_reent\000"
 2313      6E7400
 2314              	.LASF93:
 2315 05a9 5F736565 		.ascii	"_seed\000"
 2315      6400
 2316              	.LASF17:
 2317 05af 5F5F636F 		.ascii	"__count\000"
 2317      756E7400 
 2318              	.LASF118:
 2319 05b7 5F5F6C6F 		.ascii	"__lock\000"
 2319      636B00
 2320              	.LASF18:
 2321 05be 5F5F7661 		.ascii	"__value\000"
 2321      6C756500 
 2322              	.LASF55:
 2323 05c6 5F736565 		.ascii	"_seek\000"
 2323      6B00
 2324              	.LASF120:
 2325 05cc 5F696D70 		.ascii	"_impure_ptr\000"
 2325      7572655F 
 2325      70747200 
 2326              	.LASF13:
 2327 05d8 5F66706F 		.ascii	"_fpos_t\000"
 2327      735F7400 
 2328              	.LASF66:
ARM GAS  /var/folders/sw/pnvwfpq534b094x1wb62mk6m0000gn/T//ccpIbBJg.s 			page 46


 2329 05e0 5F657272 		.ascii	"_errno\000"
 2329      6E6F00
 2330              	.LASF87:
 2331 05e7 63686172 		.ascii	"char\000"
 2331      00
 2332              	.LASF29:
 2333 05ec 5F5F746D 		.ascii	"__tm_min\000"
 2333      5F6D696E 
 2333      00
 2334              	.LASF122:
 2335 05f5 75696E74 		.ascii	"uint8_t\000"
 2335      385F7400 
 2336              	.LASF94:
 2337 05fd 5F6D756C 		.ascii	"_mult\000"
 2337      7400
 2338              	.LASF22:
 2339 0603 5F6E6578 		.ascii	"_next\000"
 2339      7400
 2340              	.LASF97:
 2341 0609 5F737472 		.ascii	"_strtok_last\000"
 2341      746F6B5F 
 2341      6C617374 
 2341      00
 2342              	.LASF40:
 2343 0616 5F666E74 		.ascii	"_fntypes\000"
 2343      79706573 
 2343      00
 2344              	.LASF95:
 2345 061f 5F616464 		.ascii	"_add\000"
 2345      00
 2346              	.LASF21:
 2347 0624 5F5F554C 		.ascii	"__ULong\000"
 2347      6F6E6700 
 2348              	.LASF137:
 2349 062c 5F5F6664 		.ascii	"__fdlibm_version\000"
 2349      6C69626D 
 2349      5F766572 
 2349      73696F6E 
 2349      00
 2350              	.LASF121:
 2351 063d 5F676C6F 		.ascii	"_global_impure_ptr\000"
 2351      62616C5F 
 2351      696D7075 
 2351      72655F70 
 2351      747200
 2352              	.LASF126:
 2353 0650 5F5F6664 		.ascii	"__fdlibm_ieee\000"
 2353      6C69626D 
 2353      5F696565 
 2353      6500
 2354              	.LASF139:
 2355 065e 6D656D73 		.ascii	"memset\000"
 2355      657400
 2356              	.LASF96:
 2357 0665 5F756E75 		.ascii	"_unused_rand\000"
 2357      7365645F 
 2357      72616E64 
ARM GAS  /var/folders/sw/pnvwfpq534b094x1wb62mk6m0000gn/T//ccpIbBJg.s 			page 47


 2357      00
 2358              	.LASF25:
 2359 0672 5F776473 		.ascii	"_wds\000"
 2359      00
 2360              	.LASF34:
 2361 0677 5F5F746D 		.ascii	"__tm_wday\000"
 2361      5F776461 
 2361      7900
 2362              	.LASF89:
 2363 0681 5F676C75 		.ascii	"_glue\000"
 2363      6500
 2364              	.LASF130:
 2365 0687 5F5F6664 		.ascii	"__fdlib_version\000"
 2365      6C69625F 
 2365      76657273 
 2365      696F6E00 
 2366              	.LASF116:
 2367 0697 5F6E6D61 		.ascii	"_nmalloc\000"
 2367      6C6C6F63 
 2367      00
 2368              	.LASF106:
 2369 06a0 5F6C3634 		.ascii	"_l64a_buf\000"
 2369      615F6275 
 2369      6600
 2370              	.LASF84:
 2371 06aa 5F736967 		.ascii	"_sig_func\000"
 2371      5F66756E 
 2371      6300
 2372              	.LASF133:
 2373 06b4 73717274 		.ascii	"sqrt\000"
 2373      00
 2374              	.LASF58:
 2375 06b9 5F6E6275 		.ascii	"_nbuf\000"
 2375      6600
 2376              	.LASF117:
 2377 06bf 5F756E75 		.ascii	"_unused\000"
 2377      73656400 
 2378              	.LASF36:
 2379 06c7 5F5F746D 		.ascii	"__tm_isdst\000"
 2379      5F697364 
 2379      737400
 2380              	.LASF99:
 2381 06d2 5F6C6F63 		.ascii	"_localtime_buf\000"
 2381      616C7469 
 2381      6D655F62 
 2381      756600
 2382              	.LASF56:
 2383 06e1 5F636C6F 		.ascii	"_close\000"
 2383      736500
 2384              	.LASF102:
 2385 06e8 5F723438 		.ascii	"_r48\000"
 2385      00
 2386              	.LASF104:
 2387 06ed 5F6D6274 		.ascii	"_mbtowc_state\000"
 2387      6F77635F 
 2387      73746174 
 2387      6500
ARM GAS  /var/folders/sw/pnvwfpq534b094x1wb62mk6m0000gn/T//ccpIbBJg.s 			page 48


 2388              	.LASF78:
 2389 06fb 5F703573 		.ascii	"_p5s\000"
 2389      00
 2390              	.LASF31:
 2391 0700 5F5F746D 		.ascii	"__tm_mday\000"
 2391      5F6D6461 
 2391      7900
 2392              		.ident	"GCC: (GNU Tools for Arm Embedded Processors 7-2017-q4-major) 7.2.1 20170904 (release) [ARM
ARM GAS  /var/folders/sw/pnvwfpq534b094x1wb62mk6m0000gn/T//ccpIbBJg.s 			page 49


DEFINED SYMBOLS
                            *ABS*:0000000000000000 trajectoire.c
/var/folders/sw/pnvwfpq534b094x1wb62mk6m0000gn/T//ccpIbBJg.s:24     .text.convert_pos:0000000000000000 $t
/var/folders/sw/pnvwfpq534b094x1wb62mk6m0000gn/T//ccpIbBJg.s:32     .text.convert_pos:0000000000000000 convert_pos
/var/folders/sw/pnvwfpq534b094x1wb62mk6m0000gn/T//ccpIbBJg.s:209    .text.convert_pos:0000000000000128 $d

UNDEFINED SYMBOLS
__aeabi_f2d
__aeabi_dmul
__aeabi_dadd
__aeabi_d2f
__aeabi_ddiv
__aeabi_dsub
memset
cos
sqrt
sin
__stack_chk_fail
__stack_chk_guard
