ARM GAS  /var/folders/gd/b85s80v10ws684278k5gqzcr0000gn/T//ccpw5ivX.s 			page 1


   1              		.cpu cortex-m4
   2              		.eabi_attribute 27, 1
   3              		.eabi_attribute 28, 1
   4              		.eabi_attribute 20, 1
   5              		.eabi_attribute 21, 1
   6              		.eabi_attribute 23, 3
   7              		.eabi_attribute 24, 1
   8              		.eabi_attribute 25, 1
   9              		.eabi_attribute 26, 1
  10              		.eabi_attribute 30, 2
  11              		.eabi_attribute 34, 1
  12              		.eabi_attribute 18, 4
  13              		.file	"vision.c"
  14              		.text
  15              	.Ltext0:
  16              		.cfi_sections	.debug_frame
  17              		.section	.text.exchange_lines.part.0,"ax",%progbits
  18              		.align	1
  19              		.p2align 4,,15
  20              		.syntax unified
  21              		.thumb
  22              		.thumb_func
  23              		.fpu fpv4-sp-d16
  24              		.type	exchange_lines.part.0, %function
  25              	exchange_lines.part.0:
  26              	.LFB270:
  27              		.file 1 "vision.c"
  28              		.loc 1 393 0
  29              		.cfi_startproc
  30              		@ args = 0, pretend = 0, frame = 8
  31              		@ frame_needed = 0, uses_anonymous_args = 0
  32              	.LVL0:
  33 0000 30B5     		push	{r4, r5, lr}
  34              		.cfi_def_cfa_offset 12
  35              		.cfi_offset 4, -12
  36              		.cfi_offset 5, -8
  37              		.cfi_offset 14, -4
  38 0002 0F4D     		ldr	r5, .L8
  39 0004 83B0     		sub	sp, sp, #12
  40              		.cfi_def_cfa_offset 24
  41              	.LBB69:
  42              	.LBB70:
  43              		.loc 1 398 0
  44 0006 01EB8101 		add	r1, r1, r1, lsl #2
  45              	.LVL1:
  46 000a 00EB8101 		add	r1, r0, r1, lsl #2
  47              		.loc 1 399 0
  48 000e 02EB8202 		add	r2, r2, r2, lsl #2
  49              	.LVL2:
  50              	.LBE70:
  51              	.LBE69:
  52              		.loc 1 393 0
  53 0012 2B68     		ldr	r3, [r5]
  54 0014 0193     		str	r3, [sp, #4]
  55              	.LVL3:
  56              	.LBB72:
  57              	.LBB71:
ARM GAS  /var/folders/gd/b85s80v10ws684278k5gqzcr0000gn/T//ccpw5ivX.s 			page 2


  58              		.loc 1 399 0
  59 0016 00EB8200 		add	r0, r0, r2, lsl #2
  60              	.LVL4:
  61 001a 01F11404 		add	r4, r1, #20
  62              	.LVL5:
  63              	.L2:
  64 001e 0268     		ldr	r2, [r0]	@ float
  65              		.loc 1 398 0
  66 0020 0B68     		ldr	r3, [r1]	@ float
  67              		.loc 1 399 0
  68 0022 41F8042B 		str	r2, [r1], #4	@ float
  69              		.loc 1 396 0
  70 0026 A142     		cmp	r1, r4
  71              		.loc 1 400 0
  72 0028 40F8043B 		str	r3, [r0], #4	@ float
  73              		.loc 1 396 0
  74 002c F7D1     		bne	.L2
  75              	.LBE71:
  76              	.LBE72:
  77              		.loc 1 403 0
  78 002e 019A     		ldr	r2, [sp, #4]
  79 0030 2B68     		ldr	r3, [r5]
  80 0032 9A42     		cmp	r2, r3
  81 0034 01D1     		bne	.L7
  82 0036 03B0     		add	sp, sp, #12
  83              		.cfi_remember_state
  84              		.cfi_def_cfa_offset 12
  85              		@ sp needed
  86 0038 30BD     		pop	{r4, r5, pc}
  87              	.L7:
  88              		.cfi_restore_state
  89 003a FFF7FEFF 		bl	__stack_chk_fail
  90              	.LVL6:
  91              	.L9:
  92 003e 00BF     		.align	2
  93              	.L8:
  94 0040 00000000 		.word	__stack_chk_guard
  95              		.cfi_endproc
  96              	.LFE270:
  97              		.size	exchange_lines.part.0, .-exchange_lines.part.0
  98              		.section	.text.subtract_lines.part.1,"ax",%progbits
  99              		.align	1
 100              		.p2align 4,,15
 101              		.syntax unified
 102              		.thumb
 103              		.thumb_func
 104              		.fpu fpv4-sp-d16
 105              		.type	subtract_lines.part.1, %function
 106              	subtract_lines.part.1:
 107              	.LFB271:
 108              		.loc 1 406 0
 109              		.cfi_startproc
 110              		@ args = 0, pretend = 0, frame = 8
 111              		@ frame_needed = 0, uses_anonymous_args = 0
 112              	.LVL7:
 113 0000 10B5     		push	{r4, lr}
 114              		.cfi_def_cfa_offset 8
ARM GAS  /var/folders/gd/b85s80v10ws684278k5gqzcr0000gn/T//ccpw5ivX.s 			page 3


 115              		.cfi_offset 4, -8
 116              		.cfi_offset 14, -4
 117 0002 104C     		ldr	r4, .L16
 118 0004 82B0     		sub	sp, sp, #8
 119              		.cfi_def_cfa_offset 16
 120              	.LBB73:
 121              		.loc 1 410 0
 122 0006 02EB8202 		add	r2, r2, r2, lsl #2
 123              	.LVL8:
 124 000a 00EB8202 		add	r2, r0, r2, lsl #2
 125              	.LBE73:
 126              		.loc 1 406 0
 127 000e 2368     		ldr	r3, [r4]
 128 0010 0193     		str	r3, [sp, #4]
 129              	.LVL9:
 130              	.LBB74:
 131              		.loc 1 410 0
 132 0012 01EB8101 		add	r1, r1, r1, lsl #2
 133              	.LVL10:
 134 0016 00EB8100 		add	r0, r0, r1, lsl #2
 135              	.LVL11:
 136 001a 02F11403 		add	r3, r2, #20
 137              	.LVL12:
 138              	.L11:
 139 001e D2ED007A 		vldr.32	s15, [r2]
 140 0022 B0EC017A 		vldmia.32	r0!, {s14}
 141 0026 E7EE407A 		vfms.f32	s15, s14, s0
 142 002a E2EC017A 		vstmia.32	r2!, {s15}
 143              		.loc 1 409 0
 144 002e 9A42     		cmp	r2, r3
 145 0030 F5D1     		bne	.L11
 146              	.LBE74:
 147              		.loc 1 413 0
 148 0032 019A     		ldr	r2, [sp, #4]
 149 0034 2368     		ldr	r3, [r4]
 150 0036 9A42     		cmp	r2, r3
 151 0038 01D1     		bne	.L15
 152 003a 02B0     		add	sp, sp, #8
 153              		.cfi_remember_state
 154              		.cfi_def_cfa_offset 8
 155              		@ sp needed
 156 003c 10BD     		pop	{r4, pc}
 157              	.L15:
 158              		.cfi_restore_state
 159 003e FFF7FEFF 		bl	__stack_chk_fail
 160              	.LVL13:
 161              	.L17:
 162 0042 00BF     		.align	2
 163              	.L16:
 164 0044 00000000 		.word	__stack_chk_guard
 165              		.cfi_endproc
 166              	.LFE271:
 167              		.size	subtract_lines.part.1, .-subtract_lines.part.1
 168              		.section	.text.CaptureImage,"ax",%progbits
 169              		.align	1
 170              		.p2align 4,,15
 171              		.syntax unified
ARM GAS  /var/folders/gd/b85s80v10ws684278k5gqzcr0000gn/T//ccpw5ivX.s 			page 4


 172              		.thumb
 173              		.thumb_func
 174              		.fpu fpv4-sp-d16
 175              		.type	CaptureImage, %function
 176              	CaptureImage:
 177              	.LFB258:
 178              		.loc 1 64 0
 179              		.cfi_startproc
 180              		@ Volatile: function does not return.
 181              		@ args = 0, pretend = 0, frame = 8
 182              		@ frame_needed = 0, uses_anonymous_args = 0
 183              	.LVL14:
 184 0000 80B5     		push	{r7, lr}
 185              		.cfi_def_cfa_offset 8
 186              		.cfi_offset 7, -8
 187              		.cfi_offset 14, -4
 188              	.LBB91:
 189              	.LBB92:
 190              		.file 2 "../../lib/e-puck2_main-processor/ChibiOS//os/rt/include/chregistry.h"
 191              		.loc 2 135 0
 192 0002 234C     		ldr	r4, .L24
 193              	.LBE92:
 194              	.LBE91:
 195              		.loc 1 64 0
 196 0004 234A     		ldr	r2, .L24+4
 197              	.LBB95:
 198              	.LBB93:
 199              		.loc 2 135 0
 200 0006 A369     		ldr	r3, [r4, #24]
 201 0008 2349     		ldr	r1, .L24+8
 202              	.LBE93:
 203              	.LBE95:
 204              		.loc 1 64 0
 205 000a 1668     		ldr	r6, [r2]
 206              	.LBB96:
 207              	.LBB94:
 208              		.loc 2 135 0
 209 000c 9961     		str	r1, [r3, #24]
 210              	.LBE94:
 211              	.LBE96:
 212              		.loc 1 64 0
 213 000e 86B0     		sub	sp, sp, #24
 214              		.cfi_def_cfa_offset 32
 215              		.loc 1 71 0
 216 0010 0223     		movs	r3, #2
 217 0012 2025     		movs	r5, #32
 218 0014 0A22     		movs	r2, #10
 219 0016 0021     		movs	r1, #0
 220 0018 0093     		str	r3, [sp]
 221              		.loc 1 64 0
 222 001a 0596     		str	r6, [sp, #20]
 223              		.loc 1 71 0
 224 001c 4FF42073 		mov	r3, #640
 225 0020 CDE90155 		strd	r5, r5, [sp, #4]
 226 0024 3020     		movs	r0, #48
 227              	.LVL15:
 228 0026 1D4E     		ldr	r6, .L24+12
ARM GAS  /var/folders/gd/b85s80v10ws684278k5gqzcr0000gn/T//ccpw5ivX.s 			page 5


 229              	.LBB97:
 230              	.LBB98:
 231              	.LBB99:
 232              	.LBB100:
 233              		.file 3 "../../lib/e-puck2_main-processor/ChibiOS//os/rt/include/chsys.h"
 234              		.loc 3 367 0
 235 0028 1D4F     		ldr	r7, .L24+16
 236              	.LBE100:
 237              	.LBE99:
 238              	.LBE98:
 239              	.LBE97:
 240              		.loc 1 71 0
 241 002a FFF7FEFF 		bl	po8030_advanced_config
 242              	.LVL16:
 243              		.loc 1 72 0
 244 002e FFF7FEFF 		bl	dcmi_enable_double_buffering
 245              	.LVL17:
 246              		.loc 1 73 0
 247 0032 0020     		movs	r0, #0
 248 0034 FFF7FEFF 		bl	dcmi_set_capture_mode
 249              	.LVL18:
 250              	.LBB118:
 251              	.LBB115:
 252              	.LBB105:
 253              	.LBB106:
 254              		.file 4 "../../lib/e-puck2_main-processor/ChibiOS//os/rt/include/chbsem.h"
 255              		.loc 4 271 0
 256 0038 B046     		mov	r8, r6
 257              	.LBE106:
 258              	.LBE105:
 259              	.LBE115:
 260              	.LBE118:
 261              		.loc 1 74 0
 262 003a FFF7FEFF 		bl	dcmi_prepare
 263              	.LVL19:
 264 003e 13E0     		b	.L21
 265              	.LVL20:
 266              	.L19:
 267              	.LBB119:
 268              	.LBB116:
 269              		.loc 4 286 0
 270 0040 FFF7FEFF 		bl	chSchRescheduleS
 271              	.LVL21:
 272              	.LBB108:
 273              	.LBB104:
 274              		.loc 3 360 0
 275 0044 FFF7FEFF 		bl	_dbg_check_unlock
 276              	.LVL22:
 277              		.loc 3 361 0
 278 0048 FFF7FEFF 		bl	_stats_stop_measure_crit_thd
 279              	.LVL23:
 280              		.loc 3 367 0
 281 004c 2368     		ldr	r3, [r4]
 282 004e A342     		cmp	r3, r4
 283 0050 07D0     		beq	.L20
 284 0052 A269     		ldr	r2, [r4, #24]
 285 0054 9B68     		ldr	r3, [r3, #8]
ARM GAS  /var/folders/gd/b85s80v10ws684278k5gqzcr0000gn/T//ccpw5ivX.s 			page 6


 286 0056 9268     		ldr	r2, [r2, #8]
 287 0058 9A42     		cmp	r2, r3
 288 005a 02D2     		bcs	.L20
 289 005c 3846     		mov	r0, r7
 290 005e FFF7FEFF 		bl	chSysHalt
 291              	.LVL24:
 292              	.L20:
 293              	.LBB101:
 294              	.LBB102:
 295              	.LBB103:
 296              		.file 5 "../../lib/e-puck2_main-processor/ChibiOS//os/ext/CMSIS/include/core_cmFunc.h"
 297              		.loc 5 546 0
 298 0062 0023     		movs	r3, #0
 299              		.syntax unified
 300              	@ 546 "../../lib/e-puck2_main-processor/ChibiOS//os/ext/CMSIS/include/core_cmFunc.h" 1
 301 0064 83F31188 		MSR basepri, r3
 302              	@ 0 "" 2
 303              	.LVL25:
 304              		.thumb
 305              		.syntax unified
 306              	.L21:
 307              	.LBE103:
 308              	.LBE102:
 309              	.LBE101:
 310              	.LBE104:
 311              	.LBE108:
 312              	.LBE116:
 313              	.LBE119:
 314              		.loc 1 79 0 discriminator 1
 315 0068 FFF7FEFF 		bl	dcmi_capture_start
 316              	.LVL26:
 317              		.loc 1 81 0 discriminator 1
 318 006c FFF7FEFF 		bl	wait_image_ready
 319              	.LVL27:
 320              	.LBB120:
 321              	.LBB117:
 322              	.LBB109:
 323              	.LBB110:
 324              	.LBB111:
 325              	.LBB112:
 326              	.LBB113:
 327              		.loc 5 546 0 discriminator 1
 328              		.syntax unified
 329              	@ 546 "../../lib/e-puck2_main-processor/ChibiOS//os/ext/CMSIS/include/core_cmFunc.h" 1
 330 0070 85F31188 		MSR basepri, r5
 331              	@ 0 "" 2
 332              	.LVL28:
 333              		.thumb
 334              		.syntax unified
 335              	.LBE113:
 336              	.LBE112:
 337              	.LBE111:
 338              		.loc 3 349 0 discriminator 1
 339 0074 FFF7FEFF 		bl	_stats_start_measure_crit_thd
 340              	.LVL29:
 341              		.loc 3 350 0 discriminator 1
 342 0078 FFF7FEFF 		bl	_dbg_check_lock
ARM GAS  /var/folders/gd/b85s80v10ws684278k5gqzcr0000gn/T//ccpw5ivX.s 			page 7


 343              	.LVL30:
 344              	.LBE110:
 345              	.LBE109:
 346              	.LBB114:
 347              	.LBB107:
 348              		.loc 4 268 0 discriminator 1
 349 007c FFF7FEFF 		bl	chDbgCheckClassI
 350              	.LVL31:
 351              		.loc 4 270 0 discriminator 1
 352 0080 B368     		ldr	r3, [r6, #8]
 353 0082 002B     		cmp	r3, #0
 354 0084 DCDC     		bgt	.L19
 355              		.loc 4 271 0
 356 0086 4046     		mov	r0, r8
 357 0088 FFF7FEFF 		bl	chSemSignalI
 358              	.LVL32:
 359 008c D8E7     		b	.L19
 360              	.L25:
 361 008e 00BF     		.align	2
 362              	.L24:
 363 0090 00000000 		.word	ch
 364 0094 00000000 		.word	__stack_chk_guard
 365 0098 00000000 		.word	.LANCHOR0
 366 009c 00000000 		.word	.LANCHOR1
 367 00a0 00000000 		.word	.LANCHOR2
 368              	.LBE107:
 369              	.LBE114:
 370              	.LBE117:
 371              	.LBE120:
 372              		.cfi_endproc
 373              	.LFE258:
 374              		.size	CaptureImage, .-CaptureImage
 375              		.section	.text.SendUint8ToComputer,"ax",%progbits
 376              		.align	1
 377              		.p2align 4,,15
 378              		.global	SendUint8ToComputer
 379              		.syntax unified
 380              		.thumb
 381              		.thumb_func
 382              		.fpu fpv4-sp-d16
 383              		.type	SendUint8ToComputer, %function
 384              	SendUint8ToComputer:
 385              	.LFB257:
 386              		.loc 1 53 0
 387              		.cfi_startproc
 388              		@ args = 0, pretend = 0, frame = 16
 389              		@ frame_needed = 0, uses_anonymous_args = 0
 390              	.LVL33:
 391 0000 70B5     		push	{r4, r5, r6, lr}
 392              		.cfi_def_cfa_offset 16
 393              		.cfi_offset 4, -16
 394              		.cfi_offset 5, -12
 395              		.cfi_offset 6, -8
 396              		.cfi_offset 14, -4
 397              		.loc 1 54 0
 398 0002 124C     		ldr	r4, .L30
 399              		.loc 1 53 0
ARM GAS  /var/folders/gd/b85s80v10ws684278k5gqzcr0000gn/T//ccpw5ivX.s 			page 8


 400 0004 124D     		ldr	r5, .L30+4
 401              		.loc 1 54 0
 402 0006 2368     		ldr	r3, [r4]
 403              		.loc 1 53 0
 404 0008 2A68     		ldr	r2, [r5]
 405 000a 84B0     		sub	sp, sp, #16
 406              		.cfi_def_cfa_offset 32
 407              		.loc 1 53 0
 408 000c 0646     		mov	r6, r0
 409 000e ADF80610 		strh	r1, [sp, #6]	@ movhi
 410              		.loc 1 54 0
 411 0012 1B68     		ldr	r3, [r3]
 412 0014 0F49     		ldr	r1, .L30+8
 413              	.LVL34:
 414              		.loc 1 53 0
 415 0016 0392     		str	r2, [sp, #12]
 416              		.loc 1 54 0
 417 0018 2046     		mov	r0, r4
 418              	.LVL35:
 419 001a 0522     		movs	r2, #5
 420 001c 9847     		blx	r3
 421              	.LVL36:
 422              		.loc 1 55 0
 423 001e 2368     		ldr	r3, [r4]
 424 0020 0222     		movs	r2, #2
 425 0022 1B68     		ldr	r3, [r3]
 426 0024 0DF10601 		add	r1, sp, #6
 427 0028 2046     		mov	r0, r4
 428 002a 9847     		blx	r3
 429              	.LVL37:
 430              		.loc 1 56 0
 431 002c 2368     		ldr	r3, [r4]
 432 002e BDF80620 		ldrh	r2, [sp, #6]
 433 0032 1B68     		ldr	r3, [r3]
 434 0034 3146     		mov	r1, r6
 435 0036 2046     		mov	r0, r4
 436 0038 9847     		blx	r3
 437              	.LVL38:
 438              		.loc 1 57 0
 439 003a 039A     		ldr	r2, [sp, #12]
 440 003c 2B68     		ldr	r3, [r5]
 441 003e 9A42     		cmp	r2, r3
 442 0040 01D1     		bne	.L29
 443 0042 04B0     		add	sp, sp, #16
 444              		.cfi_remember_state
 445              		.cfi_def_cfa_offset 16
 446              		@ sp needed
 447 0044 70BD     		pop	{r4, r5, r6, pc}
 448              	.LVL39:
 449              	.L29:
 450              		.cfi_restore_state
 451 0046 FFF7FEFF 		bl	__stack_chk_fail
 452              	.LVL40:
 453              	.L31:
 454 004a 00BF     		.align	2
 455              	.L30:
 456 004c 00000000 		.word	SD3
ARM GAS  /var/folders/gd/b85s80v10ws684278k5gqzcr0000gn/T//ccpw5ivX.s 			page 9


 457 0050 00000000 		.word	__stack_chk_guard
 458 0054 00000000 		.word	.LC0
 459              		.cfi_endproc
 460              	.LFE257:
 461              		.size	SendUint8ToComputer, .-SendUint8ToComputer
 462              		.section	.text.get_real_dist_mm,"ax",%progbits
 463              		.align	1
 464              		.p2align 4,,15
 465              		.global	get_real_dist_mm
 466              		.syntax unified
 467              		.thumb
 468              		.thumb_func
 469              		.fpu fpv4-sp-d16
 470              		.type	get_real_dist_mm, %function
 471              	get_real_dist_mm:
 472              	.LFB260:
 473              		.loc 1 184 0
 474              		.cfi_startproc
 475              		@ args = 0, pretend = 0, frame = 8
 476              		@ frame_needed = 0, uses_anonymous_args = 0
 477 0000 00B5     		push	{lr}
 478              		.cfi_def_cfa_offset 4
 479              		.cfi_offset 14, -4
 480 0002 0A4B     		ldr	r3, .L36
 481              		.loc 1 185 0
 482 0004 0A49     		ldr	r1, .L36+4
 483              		.loc 1 184 0
 484 0006 1A68     		ldr	r2, [r3]
 485              		.loc 1 185 0
 486 0008 D1ED007A 		vldr.32	s15, [r1]
 487              		.loc 1 184 0
 488 000c 83B0     		sub	sp, sp, #12
 489              		.cfi_def_cfa_offset 16
 490              		.loc 1 184 0
 491 000e 0192     		str	r2, [sp, #4]
 492              		.loc 1 186 0
 493 0010 019A     		ldr	r2, [sp, #4]
 494 0012 1B68     		ldr	r3, [r3]
 495 0014 9A42     		cmp	r2, r3
 496 0016 07D1     		bne	.L35
 497 0018 FCEEE77A 		vcvt.u32.f32	s15, s15
 498 001c 17EE901A 		vmov	r1, s15	@ int
 499 0020 88B2     		uxth	r0, r1
 500 0022 03B0     		add	sp, sp, #12
 501              		.cfi_remember_state
 502              		.cfi_def_cfa_offset 4
 503              		@ sp needed
 504 0024 5DF804FB 		ldr	pc, [sp], #4
 505              	.L35:
 506              		.cfi_restore_state
 507 0028 FFF7FEFF 		bl	__stack_chk_fail
 508              	.LVL41:
 509              	.L37:
 510              		.align	2
 511              	.L36:
 512 002c 00000000 		.word	__stack_chk_guard
 513 0030 00000000 		.word	.LANCHOR3
ARM GAS  /var/folders/gd/b85s80v10ws684278k5gqzcr0000gn/T//ccpw5ivX.s 			page 10


 514              		.cfi_endproc
 515              	.LFE260:
 516              		.size	get_real_dist_mm, .-get_real_dist_mm
 517              		.section	.text.get_hor_dist_mm,"ax",%progbits
 518              		.align	1
 519              		.p2align 4,,15
 520              		.global	get_hor_dist_mm
 521              		.syntax unified
 522              		.thumb
 523              		.thumb_func
 524              		.fpu fpv4-sp-d16
 525              		.type	get_hor_dist_mm, %function
 526              	get_hor_dist_mm:
 527              	.LFB261:
 528              		.loc 1 189 0
 529              		.cfi_startproc
 530              		@ args = 0, pretend = 0, frame = 8
 531              		@ frame_needed = 0, uses_anonymous_args = 0
 532 0000 00B5     		push	{lr}
 533              		.cfi_def_cfa_offset 4
 534              		.cfi_offset 14, -4
 535 0002 0A4B     		ldr	r3, .L42
 536              		.loc 1 190 0
 537 0004 0A49     		ldr	r1, .L42+4
 538              		.loc 1 189 0
 539 0006 1A68     		ldr	r2, [r3]
 540              		.loc 1 190 0
 541 0008 D1ED007A 		vldr.32	s15, [r1]
 542              		.loc 1 189 0
 543 000c 83B0     		sub	sp, sp, #12
 544              		.cfi_def_cfa_offset 16
 545              		.loc 1 189 0
 546 000e 0192     		str	r2, [sp, #4]
 547              		.loc 1 191 0
 548 0010 019A     		ldr	r2, [sp, #4]
 549 0012 1B68     		ldr	r3, [r3]
 550 0014 9A42     		cmp	r2, r3
 551 0016 07D1     		bne	.L41
 552 0018 FCEEE77A 		vcvt.u32.f32	s15, s15
 553 001c 17EE901A 		vmov	r1, s15	@ int
 554 0020 88B2     		uxth	r0, r1
 555 0022 03B0     		add	sp, sp, #12
 556              		.cfi_remember_state
 557              		.cfi_def_cfa_offset 4
 558              		@ sp needed
 559 0024 5DF804FB 		ldr	pc, [sp], #4
 560              	.L41:
 561              		.cfi_restore_state
 562 0028 FFF7FEFF 		bl	__stack_chk_fail
 563              	.LVL42:
 564              	.L43:
 565              		.align	2
 566              	.L42:
 567 002c 00000000 		.word	__stack_chk_guard
 568 0030 00000000 		.word	.LANCHOR4
 569              		.cfi_endproc
 570              	.LFE261:
ARM GAS  /var/folders/gd/b85s80v10ws684278k5gqzcr0000gn/T//ccpw5ivX.s 			page 11


 571              		.size	get_hor_dist_mm, .-get_hor_dist_mm
 572              		.section	.text.process_image_start,"ax",%progbits
 573              		.align	1
 574              		.p2align 4,,15
 575              		.global	process_image_start
 576              		.syntax unified
 577              		.thumb
 578              		.thumb_func
 579              		.fpu fpv4-sp-d16
 580              		.type	process_image_start, %function
 581              	process_image_start:
 582              	.LFB262:
 583              		.loc 1 194 0
 584              		.cfi_startproc
 585              		@ args = 0, pretend = 0, frame = 8
 586              		@ frame_needed = 0, uses_anonymous_args = 0
 587 0000 30B5     		push	{r4, r5, lr}
 588              		.cfi_def_cfa_offset 12
 589              		.cfi_offset 4, -12
 590              		.cfi_offset 5, -8
 591              		.cfi_offset 14, -4
 592 0002 0E4C     		ldr	r4, .L48
 593              		.loc 1 195 0
 594 0004 0E4B     		ldr	r3, .L48+4
 595              		.loc 1 194 0
 596 0006 2268     		ldr	r2, [r4]
 597              		.loc 1 195 0
 598 0008 0E48     		ldr	r0, .L48+8
 599              		.loc 1 194 0
 600 000a 85B0     		sub	sp, sp, #20
 601              		.cfi_def_cfa_offset 32
 602              		.loc 1 195 0
 603 000c 0025     		movs	r5, #0
 604              		.loc 1 194 0
 605 000e 0392     		str	r2, [sp, #12]
 606              		.loc 1 195 0
 607 0010 4FF4AF61 		mov	r1, #1400
 608 0014 4022     		movs	r2, #64
 609 0016 0095     		str	r5, [sp]
 610 0018 FFF7FEFF 		bl	chThdCreateStatic
 611              	.LVL43:
 612              		.loc 1 196 0
 613 001c 0A4B     		ldr	r3, .L48+12
 614 001e 0095     		str	r5, [sp]
 615 0020 4022     		movs	r2, #64
 616 0022 0A48     		ldr	r0, .L48+16
 617 0024 4FF41E71 		mov	r1, #632
 618 0028 FFF7FEFF 		bl	chThdCreateStatic
 619              	.LVL44:
 620              		.loc 1 197 0
 621 002c 039A     		ldr	r2, [sp, #12]
 622 002e 2368     		ldr	r3, [r4]
 623 0030 9A42     		cmp	r2, r3
 624 0032 01D1     		bne	.L47
 625 0034 05B0     		add	sp, sp, #20
 626              		.cfi_remember_state
 627              		.cfi_def_cfa_offset 12
ARM GAS  /var/folders/gd/b85s80v10ws684278k5gqzcr0000gn/T//ccpw5ivX.s 			page 12


 628              		@ sp needed
 629 0036 30BD     		pop	{r4, r5, pc}
 630              	.L47:
 631              		.cfi_restore_state
 632 0038 FFF7FEFF 		bl	__stack_chk_fail
 633              	.LVL45:
 634              	.L49:
 635              		.align	2
 636              	.L48:
 637 003c 00000000 		.word	__stack_chk_guard
 638 0040 00000000 		.word	ProcessImage
 639 0044 00000000 		.word	.LANCHOR5
 640 0048 00000000 		.word	CaptureImage
 641 004c 00000000 		.word	.LANCHOR6
 642              		.cfi_endproc
 643              	.LFE262:
 644              		.size	process_image_start, .-process_image_start
 645              		.section	.text.dist_measure,"ax",%progbits
 646              		.align	1
 647              		.p2align 4,,15
 648              		.global	dist_measure
 649              		.syntax unified
 650              		.thumb
 651              		.thumb_func
 652              		.fpu fpv4-sp-d16
 653              		.type	dist_measure, %function
 654              	dist_measure:
 655              	.LFB264:
 656              		.loc 1 299 0
 657              		.cfi_startproc
 658              		@ args = 0, pretend = 0, frame = 8
 659              		@ frame_needed = 0, uses_anonymous_args = 0
 660              	.LVL46:
 661 0000 70B5     		push	{r4, r5, r6, lr}
 662              		.cfi_def_cfa_offset 16
 663              		.cfi_offset 4, -16
 664              		.cfi_offset 5, -12
 665              		.cfi_offset 6, -8
 666              		.cfi_offset 14, -4
 667 0002 164D     		ldr	r5, .L66
 668 0004 82B0     		sub	sp, sp, #8
 669              		.cfi_def_cfa_offset 24
 670              		.loc 1 299 0
 671 0006 2B68     		ldr	r3, [r5]
 672 0008 0193     		str	r3, [sp, #4]
 673              	.LVL47:
 674              	.LBB121:
 675              		.loc 1 308 0
 676 000a 0129     		cmp	r1, #1
 677 000c 18D9     		bls	.L51
 678 000e 0123     		movs	r3, #1
 679              	.LVL48:
 680              	.L54:
 681              		.loc 1 312 0
 682 0010 C418     		adds	r4, r0, r3
 683 0012 C25C     		ldrb	r2, [r0, r3]	@ zero_extendqisi2
 684 0014 14F8014C 		ldrb	r4, [r4, #-1]	@ zero_extendqisi2
ARM GAS  /var/folders/gd/b85s80v10ws684278k5gqzcr0000gn/T//ccpw5ivX.s 			page 13


 685 0018 121B     		subs	r2, r2, r4
 686 001a 0133     		adds	r3, r3, #1
 687 001c 0A2A     		cmp	r2, #10
 688 001e 9BB2     		uxth	r3, r3
 689 0020 16DD     		ble	.L57
 690              	.LVL49:
 691              		.loc 1 308 0
 692 0022 9942     		cmp	r1, r3
 693 0024 0CD9     		bls	.L51
 694 0026 5A1E     		subs	r2, r3, #1
 695 0028 0244     		add	r2, r2, r0
 696              	.LVL50:
 697              	.L55:
 698              		.loc 1 319 0
 699 002a 12F8014F 		ldrb	r4, [r2, #1]!	@ zero_extendqisi2
 700 002e 12F8016C 		ldrb	r6, [r2, #-1]	@ zero_extendqisi2
 701 0032 A41B     		subs	r4, r4, r6
 702 0034 0133     		adds	r3, r3, #1
 703 0036 0A34     		adds	r4, r4, #10
 704 0038 9BB2     		uxth	r3, r3
 705 003a 09DB     		blt	.L57
 706              	.LVL51:
 707              		.loc 1 308 0
 708 003c 9942     		cmp	r1, r3
 709 003e F4D1     		bne	.L55
 710              	.LVL52:
 711              	.L51:
 712              	.LBE121:
 713              		.loc 1 351 0
 714 0040 019A     		ldr	r2, [sp, #4]
 715 0042 2B68     		ldr	r3, [r5]
 716 0044 9A42     		cmp	r2, r3
 717 0046 4FF00000 		mov	r0, #0
 718              	.LVL53:
 719 004a 04D1     		bne	.L65
 720 004c 02B0     		add	sp, sp, #8
 721              		.cfi_remember_state
 722              		.cfi_def_cfa_offset 16
 723              		@ sp needed
 724 004e 70BD     		pop	{r4, r5, r6, pc}
 725              	.LVL54:
 726              	.L57:
 727              		.cfi_restore_state
 728              	.LBB122:
 729              		.loc 1 308 0
 730 0050 9942     		cmp	r1, r3
 731 0052 DDD8     		bhi	.L54
 732 0054 F4E7     		b	.L51
 733              	.LVL55:
 734              	.L65:
 735              	.LBE122:
 736              		.loc 1 351 0
 737 0056 FFF7FEFF 		bl	__stack_chk_fail
 738              	.LVL56:
 739              	.L67:
 740 005a 00BF     		.align	2
 741              	.L66:
ARM GAS  /var/folders/gd/b85s80v10ws684278k5gqzcr0000gn/T//ccpw5ivX.s 			page 14


 742 005c 00000000 		.word	__stack_chk_guard
 743              		.cfi_endproc
 744              	.LFE264:
 745              		.size	dist_measure, .-dist_measure
 746              		.section	.text.read_colors,"ax",%progbits
 747              		.align	1
 748              		.p2align 4,,15
 749              		.global	read_colors
 750              		.syntax unified
 751              		.thumb
 752              		.thumb_func
 753              		.fpu fpv4-sp-d16
 754              		.type	read_colors, %function
 755              	read_colors:
 756              	.LFB265:
 757              		.loc 1 357 0
 758              		.cfi_startproc
 759              		@ args = 0, pretend = 0, frame = 8
 760              		@ frame_needed = 0, uses_anonymous_args = 0
 761              	.LVL57:
 762 0000 30B5     		push	{r4, r5, lr}
 763              		.cfi_def_cfa_offset 12
 764              		.cfi_offset 4, -12
 765              		.cfi_offset 5, -8
 766              		.cfi_offset 14, -4
 767              		.loc 1 359 0
 768 0002 00EB4103 		add	r3, r0, r1, lsl #1
 769 0006 10F81110 		ldrb	r1, [r0, r1, lsl #1]	@ zero_extendqisi2
 770              	.LVL58:
 771 000a 5B78     		ldrb	r3, [r3, #1]	@ zero_extendqisi2
 772              		.loc 1 357 0
 773 000c 0C4C     		ldr	r4, .L72
 774              		.loc 1 359 0
 775 000e 03EB0123 		add	r3, r3, r1, lsl #8
 776 0012 9BB2     		uxth	r3, r3
 777              	.LVL59:
 778              		.loc 1 357 0
 779 0014 83B0     		sub	sp, sp, #12
 780              		.cfi_def_cfa_offset 24
 781              		.loc 1 360 0
 782 0016 D80A     		lsrs	r0, r3, #11
 783              	.LVL60:
 784              		.loc 1 362 0
 785 0018 03F01F01 		and	r1, r3, #31
 786              		.loc 1 357 0
 787 001c 2568     		ldr	r5, [r4]
 788 001e 0195     		str	r5, [sp, #4]
 789              		.loc 1 361 0
 790 0020 C3F34513 		ubfx	r3, r3, #5, #6
 791              	.LVL61:
 792              		.loc 1 360 0
 793 0024 4000     		lsls	r0, r0, #1
 794              		.loc 1 362 0
 795 0026 4900     		lsls	r1, r1, #1
 796              		.loc 1 360 0
 797 0028 1070     		strb	r0, [r2]
 798              		.loc 1 361 0
ARM GAS  /var/folders/gd/b85s80v10ws684278k5gqzcr0000gn/T//ccpw5ivX.s 			page 15


 799 002a 5370     		strb	r3, [r2, #1]
 800              		.loc 1 362 0
 801 002c 9170     		strb	r1, [r2, #2]
 802              		.loc 1 363 0
 803 002e 019A     		ldr	r2, [sp, #4]
 804              	.LVL62:
 805 0030 2368     		ldr	r3, [r4]
 806 0032 9A42     		cmp	r2, r3
 807 0034 01D1     		bne	.L71
 808 0036 03B0     		add	sp, sp, #12
 809              		.cfi_remember_state
 810              		.cfi_def_cfa_offset 12
 811              		@ sp needed
 812 0038 30BD     		pop	{r4, r5, pc}
 813              	.L71:
 814              		.cfi_restore_state
 815 003a FFF7FEFF 		bl	__stack_chk_fail
 816              	.LVL63:
 817              	.L73:
 818 003e 00BF     		.align	2
 819              	.L72:
 820 0040 00000000 		.word	__stack_chk_guard
 821              		.cfi_endproc
 822              	.LFE265:
 823              		.size	read_colors, .-read_colors
 824              		.section	.text.do_gauss,"ax",%progbits
 825              		.align	1
 826              		.p2align 4,,15
 827              		.global	do_gauss
 828              		.syntax unified
 829              		.thumb
 830              		.thumb_func
 831              		.fpu fpv4-sp-d16
 832              		.type	do_gauss, %function
 833              	do_gauss:
 834              	.LFB266:
 835              		.loc 1 369 0
 836              		.cfi_startproc
 837              		@ args = 0, pretend = 0, frame = 8
 838              		@ frame_needed = 0, uses_anonymous_args = 0
 839              	.LVL64:
 840 0000 70B5     		push	{r4, r5, r6, lr}
 841              		.cfi_def_cfa_offset 16
 842              		.cfi_offset 4, -16
 843              		.cfi_offset 5, -12
 844              		.cfi_offset 6, -8
 845              		.cfi_offset 14, -4
 846              	.LBB123:
 847              	.LBB124:
 848              		.loc 1 375 0
 849 0002 D0ED057A 		vldr.32	s15, [r0, #20]
 850              	.LBE124:
 851              	.LBE123:
 852              		.loc 1 369 0
 853 0006 374E     		ldr	r6, .L90
 854 0008 82B0     		sub	sp, sp, #8
 855              		.cfi_def_cfa_offset 24
ARM GAS  /var/folders/gd/b85s80v10ws684278k5gqzcr0000gn/T//ccpw5ivX.s 			page 16


 856              	.LBB138:
 857              	.LBB134:
 858              		.loc 1 375 0
 859 000a F5EE407A 		vcmp.f32	s15, #0
 860              	.LBE134:
 861              	.LBE138:
 862              		.loc 1 369 0
 863 000e 3368     		ldr	r3, [r6]
 864 0010 0193     		str	r3, [sp, #4]
 865              	.LVL65:
 866              	.LBB139:
 867              	.LBB135:
 868              		.loc 1 375 0
 869 0012 F1EE10FA 		vmrs	APSR_nzcv, FPSCR
 870              	.LBE135:
 871              	.LBE139:
 872              		.loc 1 369 0
 873 0016 0546     		mov	r5, r0
 874              	.LBB140:
 875              	.LBB136:
 876              		.loc 1 375 0
 877 0018 07D0     		beq	.L78
 878              	.LVL66:
 879              	.LBB125:
 880              		.loc 1 376 0
 881 001a 90ED000A 		vldr.32	s0, [r0]
 882              	.LBB126:
 883              	.LBB127:
 884 001e 0122     		movs	r2, #1
 885 0020 87EE800A 		vdiv.f32	s0, s15, s0
 886 0024 0021     		movs	r1, #0
 887 0026 FFF7FEFF 		bl	subtract_lines.part.1
 888              	.LVL67:
 889              	.L78:
 890              	.LBE127:
 891              	.LBE126:
 892              	.LBE125:
 893              		.loc 1 375 0
 894 002a D5ED0A7A 		vldr.32	s15, [r5, #40]
 895 002e F5EE407A 		vcmp.f32	s15, #0
 896 0032 F1EE10FA 		vmrs	APSR_nzcv, FPSCR
 897 0036 08D0     		beq	.L77
 898              	.LVL68:
 899              	.LBB132:
 900              		.loc 1 376 0
 901 0038 95ED000A 		vldr.32	s0, [r5]
 902              	.LBB130:
 903              	.LBB128:
 904 003c 0222     		movs	r2, #2
 905 003e 87EE800A 		vdiv.f32	s0, s15, s0
 906 0042 0021     		movs	r1, #0
 907 0044 2846     		mov	r0, r5
 908 0046 FFF7FEFF 		bl	subtract_lines.part.1
 909              	.LVL69:
 910              	.L77:
 911              	.LBE128:
 912              	.LBE130:
ARM GAS  /var/folders/gd/b85s80v10ws684278k5gqzcr0000gn/T//ccpw5ivX.s 			page 17


 913              	.LBE132:
 914              		.loc 1 375 0
 915 004a D5ED0B7A 		vldr.32	s15, [r5, #44]
 916 004e F5EE407A 		vcmp.f32	s15, #0
 917 0052 F1EE10FA 		vmrs	APSR_nzcv, FPSCR
 918 0056 39D1     		bne	.L88
 919              	.L79:
 920              	.LVL70:
 921              	.LBE136:
 922              	.LBE140:
 923              	.LBB141:
 924              	.LBB142:
 925              		.loc 1 384 0 discriminator 2
 926 0058 D5ED077A 		vldr.32	s15, [r5, #28]
 927 005c F5EE407A 		vcmp.f32	s15, #0
 928 0060 F1EE10FA 		vmrs	APSR_nzcv, FPSCR
 929 0064 08D0     		beq	.L80
 930              	.LVL71:
 931              	.LBB143:
 932              		.loc 1 385 0
 933 0066 95ED0C0A 		vldr.32	s0, [r5, #48]
 934              	.LBB144:
 935              	.LBB145:
 936 006a 0122     		movs	r2, #1
 937 006c 87EE800A 		vdiv.f32	s0, s15, s0
 938 0070 0221     		movs	r1, #2
 939 0072 2846     		mov	r0, r5
 940 0074 FFF7FEFF 		bl	subtract_lines.part.1
 941              	.LVL72:
 942              	.L80:
 943              	.LBE145:
 944              	.LBE144:
 945              	.LBE143:
 946              		.loc 1 383 0
 947 0078 0224     		movs	r4, #2
 948 007a 2346     		mov	r3, r4
 949              	.LVL73:
 950              	.L83:
 951              		.loc 1 384 0
 952 007c 9B00     		lsls	r3, r3, #2
 953 007e EA18     		adds	r2, r5, r3
 954 0080 D2ED007A 		vldr.32	s15, [r2]
 955 0084 F5EE407A 		vcmp.f32	s15, #0
 956 0088 F1EE10FA 		vmrs	APSR_nzcv, FPSCR
 957 008c 10D0     		beq	.L81
 958              	.LVL74:
 959              	.LBB150:
 960              	.LBB148:
 961              	.LBB146:
 962              		.loc 1 408 0
 963 008e 022C     		cmp	r4, #2
 964 0090 0ED8     		bhi	.L81
 965 0092 C4B1     		cbz	r4, .L85
 966              	.LVL75:
 967              	.LBE146:
 968              	.LBE148:
 969              		.loc 1 385 0
ARM GAS  /var/folders/gd/b85s80v10ws684278k5gqzcr0000gn/T//ccpw5ivX.s 			page 18


 970 0094 04EB8402 		add	r2, r4, r4, lsl #2
 971 0098 05EB8202 		add	r2, r5, r2, lsl #2
 972 009c 1344     		add	r3, r3, r2
 973 009e 93ED000A 		vldr.32	s0, [r3]
 974              	.LBB149:
 975              	.LBB147:
 976 00a2 0022     		movs	r2, #0
 977 00a4 87EE800A 		vdiv.f32	s0, s15, s0
 978 00a8 2146     		mov	r1, r4
 979 00aa 2846     		mov	r0, r5
 980 00ac FFF7FEFF 		bl	subtract_lines.part.1
 981              	.LVL76:
 982              	.L81:
 983              	.LBE147:
 984              	.LBE149:
 985              	.LBE150:
 986              		.loc 1 383 0 discriminator 2
 987 00b0 013C     		subs	r4, r4, #1
 988              	.LVL77:
 989 00b2 E4B2     		uxtb	r4, r4
 990              	.LVL78:
 991 00b4 2346     		mov	r3, r4
 992 00b6 002C     		cmp	r4, #0
 993 00b8 E0D1     		bne	.L83
 994              	.LBE142:
 995              	.LBE141:
 996              		.loc 1 390 0
 997 00ba 019A     		ldr	r2, [sp, #4]
 998 00bc 3368     		ldr	r3, [r6]
 999 00be 9A42     		cmp	r2, r3
 1000 00c0 0ED1     		bne	.L89
 1001 00c2 02B0     		add	sp, sp, #8
 1002              		.cfi_remember_state
 1003              		.cfi_def_cfa_offset 16
 1004              		@ sp needed
 1005 00c4 70BD     		pop	{r4, r5, r6, pc}
 1006              	.LVL79:
 1007              	.L85:
 1008              		.cfi_restore_state
 1009              	.LBB152:
 1010              	.LBB151:
 1011              		.loc 1 383 0
 1012 00c6 FF24     		movs	r4, #255
 1013              	.LVL80:
 1014 00c8 2346     		mov	r3, r4
 1015 00ca D7E7     		b	.L83
 1016              	.LVL81:
 1017              	.L88:
 1018              	.LBE151:
 1019              	.LBE152:
 1020              	.LBB153:
 1021              	.LBB137:
 1022              	.LBB133:
 1023              		.loc 1 376 0
 1024 00cc 95ED060A 		vldr.32	s0, [r5, #24]
 1025              	.LBB131:
 1026              	.LBB129:
ARM GAS  /var/folders/gd/b85s80v10ws684278k5gqzcr0000gn/T//ccpw5ivX.s 			page 19


 1027 00d0 0222     		movs	r2, #2
 1028 00d2 87EE800A 		vdiv.f32	s0, s15, s0
 1029 00d6 0121     		movs	r1, #1
 1030 00d8 2846     		mov	r0, r5
 1031 00da FFF7FEFF 		bl	subtract_lines.part.1
 1032              	.LVL82:
 1033 00de BBE7     		b	.L79
 1034              	.LVL83:
 1035              	.L89:
 1036              	.LBE129:
 1037              	.LBE131:
 1038              	.LBE133:
 1039              	.LBE137:
 1040              	.LBE153:
 1041              		.loc 1 390 0
 1042 00e0 FFF7FEFF 		bl	__stack_chk_fail
 1043              	.LVL84:
 1044              	.L91:
 1045              		.align	2
 1046              	.L90:
 1047 00e4 00000000 		.word	__stack_chk_guard
 1048              		.cfi_endproc
 1049              	.LFE266:
 1050              		.size	do_gauss, .-do_gauss
 1051              		.section	.text.exchange_lines,"ax",%progbits
 1052              		.align	1
 1053              		.p2align 4,,15
 1054              		.global	exchange_lines
 1055              		.syntax unified
 1056              		.thumb
 1057              		.thumb_func
 1058              		.fpu fpv4-sp-d16
 1059              		.type	exchange_lines, %function
 1060              	exchange_lines:
 1061              	.LFB267:
 1062              		.loc 1 393 0
 1063              		.cfi_startproc
 1064              		@ args = 0, pretend = 0, frame = 8
 1065              		@ frame_needed = 0, uses_anonymous_args = 0
 1066              	.LVL85:
 1067 0000 30B5     		push	{r4, r5, lr}
 1068              		.cfi_def_cfa_offset 12
 1069              		.cfi_offset 4, -12
 1070              		.cfi_offset 5, -8
 1071              		.cfi_offset 14, -4
 1072 0002 0D4B     		ldr	r3, .L98
 1073 0004 83B0     		sub	sp, sp, #12
 1074              		.cfi_def_cfa_offset 24
 1075              		.loc 1 393 0
 1076 0006 1D68     		ldr	r5, [r3]
 1077 0008 0195     		str	r5, [sp, #4]
 1078              		.loc 1 394 0
 1079 000a 0229     		cmp	r1, #2
 1080 000c 0CD8     		bhi	.L92
 1081              		.loc 1 394 0 is_stmt 0 discriminator 1
 1082 000e 022A     		cmp	r2, #2
 1083 0010 0AD8     		bhi	.L92
ARM GAS  /var/folders/gd/b85s80v10ws684278k5gqzcr0000gn/T//ccpw5ivX.s 			page 20


 1084              		.loc 1 394 0 discriminator 2
 1085 0012 9142     		cmp	r1, r2
 1086 0014 08D0     		beq	.L92
 1087 0016 019C     		ldr	r4, [sp, #4]
 1088 0018 1B68     		ldr	r3, [r3]
 1089 001a 9C42     		cmp	r4, r3
 1090 001c 0AD1     		bne	.L97
 1091              		.loc 1 403 0 is_stmt 1
 1092 001e 03B0     		add	sp, sp, #12
 1093              		.cfi_remember_state
 1094              		.cfi_def_cfa_offset 12
 1095              		@ sp needed
 1096 0020 BDE83040 		pop	{r4, r5, lr}
 1097              		.cfi_restore 14
 1098              		.cfi_restore 5
 1099              		.cfi_restore 4
 1100              		.cfi_def_cfa_offset 0
 1101 0024 FFF7FEBF 		b	exchange_lines.part.0
 1102              	.LVL86:
 1103              	.L92:
 1104              		.cfi_restore_state
 1105 0028 019A     		ldr	r2, [sp, #4]
 1106              	.LVL87:
 1107 002a 1B68     		ldr	r3, [r3]
 1108 002c 9A42     		cmp	r2, r3
 1109 002e 01D1     		bne	.L97
 1110 0030 03B0     		add	sp, sp, #12
 1111              		.cfi_remember_state
 1112              		.cfi_def_cfa_offset 12
 1113              		@ sp needed
 1114 0032 30BD     		pop	{r4, r5, pc}
 1115              	.L97:
 1116              		.cfi_restore_state
 1117 0034 FFF7FEFF 		bl	__stack_chk_fail
 1118              	.LVL88:
 1119              	.L99:
 1120              		.align	2
 1121              	.L98:
 1122 0038 00000000 		.word	__stack_chk_guard
 1123              		.cfi_endproc
 1124              	.LFE267:
 1125              		.size	exchange_lines, .-exchange_lines
 1126              		.section	.text.subtract_lines,"ax",%progbits
 1127              		.align	1
 1128              		.p2align 4,,15
 1129              		.global	subtract_lines
 1130              		.syntax unified
 1131              		.thumb
 1132              		.thumb_func
 1133              		.fpu fpv4-sp-d16
 1134              		.type	subtract_lines, %function
 1135              	subtract_lines:
 1136              	.LFB268:
 1137              		.loc 1 406 0
 1138              		.cfi_startproc
 1139              		@ args = 0, pretend = 0, frame = 8
 1140              		@ frame_needed = 0, uses_anonymous_args = 0
ARM GAS  /var/folders/gd/b85s80v10ws684278k5gqzcr0000gn/T//ccpw5ivX.s 			page 21


 1141              	.LVL89:
 1142 0000 30B5     		push	{r4, r5, lr}
 1143              		.cfi_def_cfa_offset 12
 1144              		.cfi_offset 4, -12
 1145              		.cfi_offset 5, -8
 1146              		.cfi_offset 14, -4
 1147 0002 0D4B     		ldr	r3, .L106
 1148 0004 83B0     		sub	sp, sp, #12
 1149              		.cfi_def_cfa_offset 24
 1150              		.loc 1 406 0
 1151 0006 1D68     		ldr	r5, [r3]
 1152 0008 0195     		str	r5, [sp, #4]
 1153              		.loc 1 408 0
 1154 000a 0229     		cmp	r1, #2
 1155 000c 0CD8     		bhi	.L100
 1156              		.loc 1 408 0 is_stmt 0 discriminator 1
 1157 000e 022A     		cmp	r2, #2
 1158 0010 0AD8     		bhi	.L100
 1159              		.loc 1 408 0 discriminator 2
 1160 0012 9142     		cmp	r1, r2
 1161 0014 08D0     		beq	.L100
 1162 0016 019C     		ldr	r4, [sp, #4]
 1163 0018 1B68     		ldr	r3, [r3]
 1164 001a 9C42     		cmp	r4, r3
 1165 001c 0AD1     		bne	.L105
 1166              		.loc 1 413 0 is_stmt 1
 1167 001e 03B0     		add	sp, sp, #12
 1168              		.cfi_remember_state
 1169              		.cfi_def_cfa_offset 12
 1170              		@ sp needed
 1171 0020 BDE83040 		pop	{r4, r5, lr}
 1172              		.cfi_restore 14
 1173              		.cfi_restore 5
 1174              		.cfi_restore 4
 1175              		.cfi_def_cfa_offset 0
 1176 0024 FFF7FEBF 		b	subtract_lines.part.1
 1177              	.LVL90:
 1178              	.L100:
 1179              		.cfi_restore_state
 1180 0028 019A     		ldr	r2, [sp, #4]
 1181              	.LVL91:
 1182 002a 1B68     		ldr	r3, [r3]
 1183 002c 9A42     		cmp	r2, r3
 1184 002e 01D1     		bne	.L105
 1185 0030 03B0     		add	sp, sp, #12
 1186              		.cfi_remember_state
 1187              		.cfi_def_cfa_offset 12
 1188              		@ sp needed
 1189 0032 30BD     		pop	{r4, r5, pc}
 1190              	.L105:
 1191              		.cfi_restore_state
 1192 0034 FFF7FEFF 		bl	__stack_chk_fail
 1193              	.LVL92:
 1194              	.L107:
 1195              		.align	2
 1196              	.L106:
 1197 0038 00000000 		.word	__stack_chk_guard
ARM GAS  /var/folders/gd/b85s80v10ws684278k5gqzcr0000gn/T//ccpw5ivX.s 			page 22


 1198              		.cfi_endproc
 1199              	.LFE268:
 1200              		.size	subtract_lines, .-subtract_lines
 1201              		.section	.text.det_3_3,"ax",%progbits
 1202              		.align	1
 1203              		.p2align 4,,15
 1204              		.global	det_3_3
 1205              		.syntax unified
 1206              		.thumb
 1207              		.thumb_func
 1208              		.fpu fpv4-sp-d16
 1209              		.type	det_3_3, %function
 1210              	det_3_3:
 1211              	.LFB269:
 1212              		.loc 1 416 0
 1213              		.cfi_startproc
 1214              		@ args = 0, pretend = 0, frame = 8
 1215              		@ frame_needed = 0, uses_anonymous_args = 0
 1216              	.LVL93:
 1217 0000 00B5     		push	{lr}
 1218              		.cfi_def_cfa_offset 4
 1219              		.cfi_offset 14, -4
 1220              		.loc 1 418 0
 1221 0002 D0ED005A 		vldr.32	s11, [r0]
 1222 0006 90ED066A 		vldr.32	s12, [r0, #24]
 1223 000a 90ED0C5A 		vldr.32	s10, [r0, #48]
 1224              	.LVL94:
 1225              		.loc 1 419 0
 1226 000e D0ED016A 		vldr.32	s13, [r0, #4]
 1227 0012 90ED077A 		vldr.32	s14, [r0, #28]
 1228 0016 D0ED0A4A 		vldr.32	s9, [r0, #40]
 1229              		.loc 1 420 0
 1230 001a 90ED053A 		vldr.32	s6, [r0, #20]
 1231 001e D0ED0B3A 		vldr.32	s7, [r0, #44]
 1232 0022 90ED024A 		vldr.32	s8, [r0, #8]
 1233              		.loc 1 416 0
 1234 0026 1E4B     		ldr	r3, .L112
 1235              		.loc 1 418 0
 1236 0028 65EE867A 		vmul.f32	s15, s11, s12
 1237              		.loc 1 419 0
 1238 002c 26EE872A 		vmul.f32	s4, s13, s14
 1239              		.loc 1 418 0
 1240 0030 67EE857A 		vmul.f32	s15, s15, s10
 1241              		.loc 1 420 0
 1242 0034 63EE232A 		vmul.f32	s5, s6, s7
 1243              		.loc 1 418 0
 1244 0038 FDEEE77A 		vcvt.s32.f32	s15, s15
 1245              		.loc 1 421 0
 1246 003c 26EE046A 		vmul.f32	s12, s12, s8
 1247              	.LVL95:
 1248              		.loc 1 419 0
 1249 0040 F8EEE77A 		vcvt.f32.s32	s15, s15
 1250              		.loc 1 422 0
 1251 0044 66EE836A 		vmul.f32	s13, s13, s6
 1252              		.loc 1 419 0
 1253 0048 E2EE247A 		vfma.f32	s15, s4, s9
 1254              	.LVL96:
ARM GAS  /var/folders/gd/b85s80v10ws684278k5gqzcr0000gn/T//ccpw5ivX.s 			page 23


 1255              		.loc 1 416 0
 1256 004c 83B0     		sub	sp, sp, #12
 1257              		.cfi_def_cfa_offset 16
 1258              		.loc 1 416 0
 1259 004e 1A68     		ldr	r2, [r3]
 1260 0050 0192     		str	r2, [sp, #4]
 1261              		.loc 1 419 0
 1262 0052 FDEEE77A 		vcvt.s32.f32	s15, s15
 1263              	.LVL97:
 1264              		.loc 1 425 0
 1265 0056 019A     		ldr	r2, [sp, #4]
 1266 0058 1B68     		ldr	r3, [r3]
 1267              		.loc 1 420 0
 1268 005a F8EEE77A 		vcvt.f32.s32	s15, s15
 1269              		.loc 1 423 0
 1270 005e 27EE237A 		vmul.f32	s14, s14, s7
 1271              		.loc 1 420 0
 1272 0062 E2EE847A 		vfma.f32	s15, s5, s8
 1273              	.LVL98:
 1274              		.loc 1 425 0
 1275 0066 9A42     		cmp	r2, r3
 1276              		.loc 1 420 0
 1277 0068 FDEEE77A 		vcvt.s32.f32	s15, s15
 1278              	.LVL99:
 1279              		.loc 1 421 0
 1280 006c F8EEE77A 		vcvt.f32.s32	s15, s15
 1281 0070 E4EEC67A 		vfms.f32	s15, s9, s12
 1282              	.LVL100:
 1283 0074 FDEEE77A 		vcvt.s32.f32	s15, s15
 1284              	.LVL101:
 1285              		.loc 1 422 0
 1286 0078 F8EEE77A 		vcvt.f32.s32	s15, s15
 1287 007c E5EE667A 		vfms.f32	s15, s10, s13
 1288              	.LVL102:
 1289 0080 FDEEE77A 		vcvt.s32.f32	s15, s15
 1290              	.LVL103:
 1291              		.loc 1 423 0
 1292 0084 F8EEE77A 		vcvt.f32.s32	s15, s15
 1293 0088 E5EEC77A 		vfms.f32	s15, s11, s14
 1294              	.LVL104:
 1295              		.loc 1 425 0
 1296 008c 06D1     		bne	.L111
 1297 008e FDEEE77A 		vcvt.s32.f32	s15, s15
 1298              	.LVL105:
 1299 0092 17EE900A 		vmov	r0, s15	@ int
 1300              	.LVL106:
 1301 0096 03B0     		add	sp, sp, #12
 1302              		.cfi_remember_state
 1303              		.cfi_def_cfa_offset 4
 1304              		@ sp needed
 1305 0098 5DF804FB 		ldr	pc, [sp], #4
 1306              	.LVL107:
 1307              	.L111:
 1308              		.cfi_restore_state
 1309 009c FFF7FEFF 		bl	__stack_chk_fail
 1310              	.LVL108:
 1311              	.L113:
ARM GAS  /var/folders/gd/b85s80v10ws684278k5gqzcr0000gn/T//ccpw5ivX.s 			page 24


 1312              		.align	2
 1313              	.L112:
 1314 00a0 00000000 		.word	__stack_chk_guard
 1315              		.cfi_endproc
 1316              	.LFE269:
 1317              		.size	det_3_3, .-det_3_3
 1318              		.section	.text.compute_weights,"ax",%progbits
 1319              		.align	1
 1320              		.p2align 4,,15
 1321              		.global	compute_weights
 1322              		.syntax unified
 1323              		.thumb
 1324              		.thumb_func
 1325              		.fpu fpv4-sp-d16
 1326              		.type	compute_weights, %function
 1327              	compute_weights:
 1328              	.LFB263:
 1329              		.loc 1 203 0
 1330              		.cfi_startproc
 1331              		@ args = 20, pretend = 0, frame = 64
 1332              		@ frame_needed = 0, uses_anonymous_args = 0
 1333              	.LVL109:
 1334 0000 2DE9F041 		push	{r4, r5, r6, r7, r8, lr}
 1335              		.cfi_def_cfa_offset 24
 1336              		.cfi_offset 4, -24
 1337              		.cfi_offset 5, -20
 1338              		.cfi_offset 6, -16
 1339              		.cfi_offset 7, -12
 1340              		.cfi_offset 8, -8
 1341              		.cfi_offset 14, -4
 1342 0004 2DED048B 		vpush.64	{d8, d9}
 1343              		.cfi_def_cfa_offset 40
 1344              		.cfi_offset 80, -40
 1345              		.cfi_offset 81, -36
 1346              		.cfi_offset 82, -32
 1347              		.cfi_offset 83, -28
 1348              		.loc 1 210 0
 1349 0008 07EE100A 		vmov	s14, r0	@ int
 1350              		.loc 1 203 0
 1351 000c 90B0     		sub	sp, sp, #64
 1352              		.cfi_def_cfa_offset 104
 1353              		.loc 1 210 0
 1354 000e B8EE479A 		vcvt.f32.u32	s18, s14
 1355              		.loc 1 203 0
 1356 0012 9DF86840 		ldrb	r4, [sp, #104]	@ zero_extendqisi2
 1357 0016 A24D     		ldr	r5, .L139
 1358              		.loc 1 210 0
 1359 0018 A24E     		ldr	r6, .L139+4
 1360 001a 0396     		str	r6, [sp, #12]	@ float
 1361 001c 07EE101A 		vmov	s14, r1	@ int
 1362              		.loc 1 203 0
 1363 0020 08EE904A 		vmov	s17, r4	@ int
 1364              		.loc 1 210 0
 1365 0024 B8EE476A 		vcvt.f32.u32	s12, s14
 1366              		.loc 1 203 0
 1367 0028 9DF86C40 		ldrb	r4, [sp, #108]	@ zero_extendqisi2
 1368              		.loc 1 210 0
ARM GAS  /var/folders/gd/b85s80v10ws684278k5gqzcr0000gn/T//ccpw5ivX.s 			page 25


 1369 002c 8DED009A 		vstr.32	s18, [sp]
 1370 0030 07EE102A 		vmov	s14, r2	@ int
 1371              		.loc 1 203 0
 1372 0034 07EE904A 		vmov	s15, r4	@ int
 1373              		.loc 1 210 0
 1374 0038 F8EE476A 		vcvt.f32.u32	s13, s14
 1375 003c 07EE103A 		vmov	s14, r3	@ int
 1376 0040 F8EE677A 		vcvt.f32.u32	s15, s15
 1377 0044 B8EE477A 		vcvt.f32.u32	s14, s14
 1378 0048 F8EE688A 		vcvt.f32.u32	s17, s17
 1379 004c 0024     		movs	r4, #0
 1380              		.loc 1 203 0
 1381 004e 2B68     		ldr	r3, [r5]
 1382              	.LVL110:
 1383              		.loc 1 210 0
 1384 0050 CDED068A 		vstr.32	s17, [sp, #24]
 1385 0054 B7EE008A 		vmov.f32	s16, #1.0e+0
 1386 0058 6846     		mov	r0, sp
 1387              	.LVL111:
 1388 005a CDED077A 		vstr.32	s15, [sp, #28]
 1389              		.loc 1 203 0
 1390 005e 0F93     		str	r3, [sp, #60]
 1391              	.LVL112:
 1392              		.loc 1 210 0
 1393 0060 8DED016A 		vstr.32	s12, [sp, #4]
 1394 0064 CDED026A 		vstr.32	s13, [sp, #8]
 1395 0068 0494     		str	r4, [sp, #16]	@ float
 1396 006a 0894     		str	r4, [sp, #32]	@ float
 1397 006c 0994     		str	r4, [sp, #36]	@ float
 1398 006e 0A94     		str	r4, [sp, #40]	@ float
 1399 0070 0B94     		str	r4, [sp, #44]	@ float
 1400 0072 0D94     		str	r4, [sp, #52]	@ float
 1401 0074 8DED057A 		vstr.32	s14, [sp, #20]
 1402 0078 8DED0C8A 		vstr.32	s16, [sp, #48]
 1403 007c 8DED0E8A 		vstr.32	s16, [sp, #56]
 1404              	.LVL113:
 1405 0080 FFF7FEFF 		bl	det_3_3
 1406              	.LVL114:
 1407              		.loc 1 203 0
 1408 0084 DDE91C87 		ldrd	r8, r7, [sp, #112]
 1409 0088 1E9E     		ldr	r6, [sp, #120]
 1410              		.loc 1 214 0
 1411 008a 0221     		movs	r1, #2
 1412              	.LVL115:
 1413              	.L115:
 1414              		.loc 1 216 0
 1415 008c B0B9     		cbnz	r0, .L133
 1416              	.L136:
 1417 008e 9DED0A7A 		vldr.32	s14, [sp, #40]
 1418              	.L119:
 1419              		.loc 1 217 0
 1420 0092 B4EE487A 		vcmp.f32	s14, s16
 1421 0096 F1EE10FA 		vmrs	APSR_nzcv, FPSCR
 1422 009a 63D0     		beq	.L130
 1423              		.loc 1 219 0
 1424 009c DDED0C7A 		vldr.32	s15, [sp, #48]
 1425 00a0 F4EE487A 		vcmp.f32	s15, s16
ARM GAS  /var/folders/gd/b85s80v10ws684278k5gqzcr0000gn/T//ccpw5ivX.s 			page 26


 1426 00a4 F1EE10FA 		vmrs	APSR_nzcv, FPSCR
 1427 00a8 4DD1     		bne	.L117
 1428 00aa 6846     		mov	r0, sp
 1429              		.loc 1 220 0
 1430 00ac 0C94     		str	r4, [sp, #48]	@ float
 1431              		.loc 1 221 0
 1432 00ae 8DED0B8A 		vstr.32	s16, [sp, #44]
 1433              	.LVL116:
 1434 00b2 FFF7FEFF 		bl	det_3_3
 1435              	.LVL117:
 1436              		.loc 1 222 0
 1437 00b6 0121     		movs	r1, #1
 1438              	.LVL118:
 1439              		.loc 1 216 0
 1440 00b8 0028     		cmp	r0, #0
 1441 00ba E8D0     		beq	.L136
 1442              	.L133:
 1443              		.loc 1 232 0
 1444 00bc 0129     		cmp	r1, #1
 1445 00be 00F0A580 		beq	.L121
 1446 00c2 0229     		cmp	r1, #2
 1447 00c4 59D1     		bne	.L137
 1448              		.loc 1 244 0
 1449 00c6 B5EE409A 		vcmp.f32	s18, #0
 1450 00ca F1EE10FA 		vmrs	APSR_nzcv, FPSCR
 1451 00ce 04D0     		beq	.L127
 1452              		.loc 1 244 0 is_stmt 0 discriminator 2
 1453 00d0 F5EE408A 		vcmp.f32	s17, #0
 1454 00d4 F1EE10FA 		vmrs	APSR_nzcv, FPSCR
 1455 00d8 04D1     		bne	.L128
 1456              	.L127:
 1457              	.LVL119:
 1458              	.LBB154:
 1459              	.LBB155:
 1460 00da 0122     		movs	r2, #1
 1461 00dc 0021     		movs	r1, #0
 1462 00de 6846     		mov	r0, sp
 1463 00e0 FFF7FEFF 		bl	exchange_lines.part.0
 1464              	.LVL120:
 1465              	.L128:
 1466              	.LBE155:
 1467              	.LBE154:
 1468              		.loc 1 249 0 is_stmt 1
 1469 00e4 6846     		mov	r0, sp
 1470 00e6 FFF7FEFF 		bl	do_gauss
 1471              	.LVL121:
 1472              		.loc 1 283 0
 1473 00ea DDED007A 		vldr.32	s15, [sp]
 1474 00ee DDED045A 		vldr.32	s11, [sp, #16]
 1475              		.loc 1 285 0
 1476 00f2 9DED067A 		vldr.32	s14, [sp, #24]
 1477 00f6 DDED096A 		vldr.32	s13, [sp, #36]
 1478              		.loc 1 286 0
 1479 00fa 9DED086A 		vldr.32	s12, [sp, #32]
 1480              		.loc 1 284 0
 1481 00fe DDED034A 		vldr.32	s9, [sp, #12]
 1482              		.loc 1 283 0
ARM GAS  /var/folders/gd/b85s80v10ws684278k5gqzcr0000gn/T//ccpw5ivX.s 			page 27


 1483 0102 85EEA75A 		vdiv.f32	s10, s11, s15
 1484              	.LVL122:
 1485              		.loc 1 295 0
 1486 0106 0120     		movs	r0, #1
 1487              		.loc 1 285 0
 1488 0108 C6EE875A 		vdiv.f32	s11, s13, s14
 1489              		.loc 1 286 0
 1490 010c C6EE076A 		vdiv.f32	s13, s12, s14
 1491              		.loc 1 284 0
 1492 0110 84EEA76A 		vdiv.f32	s12, s9, s15
 1493              	.LVL123:
 1494              		.loc 1 288 0
 1495 0114 F7EE007A 		vmov.f32	s15, #1.0e+0
 1496 0118 E5EE057A 		vfma.f32	s15, s10, s10
 1497 011c 25EEA67A 		vmul.f32	s14, s11, s13
 1498 0120 E5EEA57A 		vfma.f32	s15, s11, s11
 1499 0124 A5EE067A 		vfma.f32	s14, s10, s12
 1500 0128 B1EE477A 		vneg.f32	s14, s14
 1501 012c C7EE274A 		vdiv.f32	s9, s14, s15
 1502              	.LVL124:
 1503              		.loc 1 290 0
 1504 0130 A5EE246A 		vfma.f32	s12, s10, s9
 1505              	.LVL125:
 1506              		.loc 1 291 0
 1507 0134 E5EEA46A 		vfma.f32	s13, s11, s9
 1508              	.LVL126:
 1509              		.loc 1 290 0
 1510 0138 88ED006A 		vstr.32	s12, [r8]
 1511              		.loc 1 291 0
 1512 013c C7ED006A 		vstr.32	s13, [r7]
 1513              		.loc 1 292 0
 1514 0140 C6ED004A 		vstr.32	s9, [r6]
 1515              		.loc 1 293 0
 1516 0144 0FE0     		b	.L116
 1517              	.LVL127:
 1518              	.L117:
 1519              		.loc 1 224 0
 1520 0146 DDED0B7A 		vldr.32	s15, [sp, #44]
 1521 014a F4EE487A 		vcmp.f32	s15, s16
 1522 014e F1EE10FA 		vmrs	APSR_nzcv, FPSCR
 1523 0152 9ED1     		bne	.L119
 1524 0154 6846     		mov	r0, sp
 1525              		.loc 1 225 0
 1526 0156 0B94     		str	r4, [sp, #44]	@ float
 1527              		.loc 1 226 0
 1528 0158 8DED0A8A 		vstr.32	s16, [sp, #40]
 1529              	.LVL128:
 1530 015c FFF7FEFF 		bl	det_3_3
 1531              	.LVL129:
 1532              		.loc 1 227 0
 1533 0160 0021     		movs	r1, #0
 1534 0162 93E7     		b	.L115
 1535              	.LVL130:
 1536              	.L130:
 1537              		.loc 1 217 0
 1538 0164 0020     		movs	r0, #0
 1539              	.L116:
ARM GAS  /var/folders/gd/b85s80v10ws684278k5gqzcr0000gn/T//ccpw5ivX.s 			page 28


 1540              		.loc 1 296 0
 1541 0166 0F9A     		ldr	r2, [sp, #60]
 1542 0168 2B68     		ldr	r3, [r5]
 1543 016a 9A42     		cmp	r2, r3
 1544 016c 40F09680 		bne	.L138
 1545 0170 10B0     		add	sp, sp, #64
 1546              		.cfi_remember_state
 1547              		.cfi_def_cfa_offset 40
 1548              		@ sp needed
 1549 0172 BDEC048B 		vldm	sp!, {d8-d9}
 1550              		.cfi_restore 82
 1551              		.cfi_restore 83
 1552              		.cfi_restore 80
 1553              		.cfi_restore 81
 1554              		.cfi_def_cfa_offset 24
 1555 0176 BDE8F081 		pop	{r4, r5, r6, r7, r8, pc}
 1556              	.LVL131:
 1557              	.L137:
 1558              		.cfi_restore_state
 1559              	.LBB156:
 1560              	.LBB157:
 1561 017a 0222     		movs	r2, #2
 1562 017c 0021     		movs	r1, #0
 1563 017e 6846     		mov	r0, sp
 1564 0180 FFF7FEFF 		bl	exchange_lines.part.0
 1565              	.LVL132:
 1566              	.LBE157:
 1567              	.LBE156:
 1568              		.loc 1 235 0
 1569 0184 DDED067A 		vldr.32	s15, [sp, #24]
 1570 0188 F5EE407A 		vcmp.f32	s15, #0
 1571 018c F1EE10FA 		vmrs	APSR_nzcv, FPSCR
 1572 0190 06D0     		beq	.L123
 1573              		.loc 1 235 0 is_stmt 0 discriminator 2
 1574 0192 DDED0C7A 		vldr.32	s15, [sp, #48]
 1575 0196 F5EE407A 		vcmp.f32	s15, #0
 1576 019a F1EE10FA 		vmrs	APSR_nzcv, FPSCR
 1577 019e 04D1     		bne	.L124
 1578              	.L123:
 1579              	.LVL133:
 1580              	.LBB158:
 1581              	.LBB159:
 1582 01a0 0222     		movs	r2, #2
 1583 01a2 0121     		movs	r1, #1
 1584 01a4 6846     		mov	r0, sp
 1585 01a6 FFF7FEFF 		bl	exchange_lines.part.0
 1586              	.LVL134:
 1587              	.L124:
 1588              	.LBE159:
 1589              	.LBE158:
 1590              		.loc 1 249 0 is_stmt 1
 1591 01aa 6846     		mov	r0, sp
 1592 01ac FFF7FEFF 		bl	do_gauss
 1593              	.LVL135:
 1594              		.loc 1 257 0
 1595 01b0 DDED067A 		vldr.32	s15, [sp, #24]
 1596 01b4 DDED095A 		vldr.32	s11, [sp, #36]
ARM GAS  /var/folders/gd/b85s80v10ws684278k5gqzcr0000gn/T//ccpw5ivX.s 			page 29


 1597              		.loc 1 259 0
 1598 01b8 9DED0C7A 		vldr.32	s14, [sp, #48]
 1599 01bc DDED0E6A 		vldr.32	s13, [sp, #56]
 1600              		.loc 1 260 0
 1601 01c0 9DED0D6A 		vldr.32	s12, [sp, #52]
 1602              		.loc 1 258 0
 1603 01c4 DDED084A 		vldr.32	s9, [sp, #32]
 1604              		.loc 1 257 0
 1605 01c8 85EEA75A 		vdiv.f32	s10, s11, s15
 1606              	.LVL136:
 1607              		.loc 1 295 0
 1608 01cc 0120     		movs	r0, #1
 1609              		.loc 1 259 0
 1610 01ce C6EE875A 		vdiv.f32	s11, s13, s14
 1611              		.loc 1 260 0
 1612 01d2 C6EE076A 		vdiv.f32	s13, s12, s14
 1613              		.loc 1 258 0
 1614 01d6 84EEA76A 		vdiv.f32	s12, s9, s15
 1615              	.LVL137:
 1616              		.loc 1 262 0
 1617 01da F7EE007A 		vmov.f32	s15, #1.0e+0
 1618 01de E5EE057A 		vfma.f32	s15, s10, s10
 1619 01e2 25EEA67A 		vmul.f32	s14, s11, s13
 1620 01e6 E5EEA57A 		vfma.f32	s15, s11, s11
 1621 01ea A5EE067A 		vfma.f32	s14, s10, s12
 1622 01ee B1EE477A 		vneg.f32	s14, s14
 1623 01f2 C7EE274A 		vdiv.f32	s9, s14, s15
 1624              	.LVL138:
 1625              		.loc 1 265 0
 1626 01f6 A5EE246A 		vfma.f32	s12, s10, s9
 1627              	.LVL139:
 1628              		.loc 1 266 0
 1629 01fa E5EEA46A 		vfma.f32	s13, s11, s9
 1630              	.LVL140:
 1631              		.loc 1 264 0
 1632 01fe C8ED004A 		vstr.32	s9, [r8]
 1633              		.loc 1 265 0
 1634 0202 87ED006A 		vstr.32	s12, [r7]
 1635              		.loc 1 266 0
 1636 0206 C6ED006A 		vstr.32	s13, [r6]
 1637              		.loc 1 267 0
 1638 020a ACE7     		b	.L116
 1639              	.LVL141:
 1640              	.L121:
 1641              	.LBB160:
 1642              	.LBB161:
 1643 020c 0222     		movs	r2, #2
 1644 020e 6846     		mov	r0, sp
 1645 0210 FFF7FEFF 		bl	exchange_lines.part.0
 1646              	.LVL142:
 1647              	.LBE161:
 1648              	.LBE160:
 1649              		.loc 1 240 0
 1650 0214 DDED007A 		vldr.32	s15, [sp]
 1651 0218 F5EE407A 		vcmp.f32	s15, #0
 1652 021c F1EE10FA 		vmrs	APSR_nzcv, FPSCR
 1653 0220 06D0     		beq	.L125
ARM GAS  /var/folders/gd/b85s80v10ws684278k5gqzcr0000gn/T//ccpw5ivX.s 			page 30


 1654              		.loc 1 240 0 is_stmt 0 discriminator 2
 1655 0222 DDED0C7A 		vldr.32	s15, [sp, #48]
 1656 0226 F5EE407A 		vcmp.f32	s15, #0
 1657 022a F1EE10FA 		vmrs	APSR_nzcv, FPSCR
 1658 022e 04D1     		bne	.L126
 1659              	.L125:
 1660              	.LVL143:
 1661              	.LBB162:
 1662              	.LBB163:
 1663 0230 0222     		movs	r2, #2
 1664 0232 0021     		movs	r1, #0
 1665 0234 6846     		mov	r0, sp
 1666 0236 FFF7FEFF 		bl	exchange_lines.part.0
 1667              	.LVL144:
 1668              	.L126:
 1669              	.LBE163:
 1670              	.LBE162:
 1671              		.loc 1 249 0 is_stmt 1
 1672 023a 6846     		mov	r0, sp
 1673 023c FFF7FEFF 		bl	do_gauss
 1674              	.LVL145:
 1675              		.loc 1 270 0
 1676 0240 DDED007A 		vldr.32	s15, [sp]
 1677 0244 DDED045A 		vldr.32	s11, [sp, #16]
 1678              		.loc 1 272 0
 1679 0248 9DED0C7A 		vldr.32	s14, [sp, #48]
 1680 024c DDED0E6A 		vldr.32	s13, [sp, #56]
 1681              		.loc 1 273 0
 1682 0250 9DED0D6A 		vldr.32	s12, [sp, #52]
 1683              		.loc 1 271 0
 1684 0254 DDED034A 		vldr.32	s9, [sp, #12]
 1685              		.loc 1 270 0
 1686 0258 85EEA75A 		vdiv.f32	s10, s11, s15
 1687              	.LVL146:
 1688              		.loc 1 295 0
 1689 025c 0120     		movs	r0, #1
 1690              		.loc 1 272 0
 1691 025e C6EE875A 		vdiv.f32	s11, s13, s14
 1692              		.loc 1 273 0
 1693 0262 C6EE076A 		vdiv.f32	s13, s12, s14
 1694              		.loc 1 271 0
 1695 0266 84EEA76A 		vdiv.f32	s12, s9, s15
 1696              	.LVL147:
 1697              		.loc 1 275 0
 1698 026a F7EE007A 		vmov.f32	s15, #1.0e+0
 1699 026e E5EE057A 		vfma.f32	s15, s10, s10
 1700 0272 25EEA67A 		vmul.f32	s14, s11, s13
 1701 0276 E5EEA57A 		vfma.f32	s15, s11, s11
 1702 027a A5EE067A 		vfma.f32	s14, s10, s12
 1703 027e B1EE477A 		vneg.f32	s14, s14
 1704 0282 C7EE274A 		vdiv.f32	s9, s14, s15
 1705              	.LVL148:
 1706              		.loc 1 277 0
 1707 0286 A5EE246A 		vfma.f32	s12, s10, s9
 1708              	.LVL149:
 1709              		.loc 1 279 0
 1710 028a E5EEA46A 		vfma.f32	s13, s11, s9
ARM GAS  /var/folders/gd/b85s80v10ws684278k5gqzcr0000gn/T//ccpw5ivX.s 			page 31


 1711              	.LVL150:
 1712              		.loc 1 277 0
 1713 028e 88ED006A 		vstr.32	s12, [r8]
 1714              		.loc 1 278 0
 1715 0292 C7ED004A 		vstr.32	s9, [r7]
 1716              		.loc 1 279 0
 1717 0296 C6ED006A 		vstr.32	s13, [r6]
 1718              		.loc 1 280 0
 1719 029a 64E7     		b	.L116
 1720              	.LVL151:
 1721              	.L138:
 1722              		.loc 1 296 0
 1723 029c FFF7FEFF 		bl	__stack_chk_fail
 1724              	.LVL152:
 1725              	.L140:
 1726              		.align	2
 1727              	.L139:
 1728 02a0 00000000 		.word	__stack_chk_guard
 1729 02a4 00007F43 		.word	1132396544
 1730              		.cfi_endproc
 1731              	.LFE263:
 1732              		.size	compute_weights, .-compute_weights
 1733              		.section	.text.ProcessImage,"ax",%progbits
 1734              		.align	1
 1735              		.p2align 4,,15
 1736              		.syntax unified
 1737              		.thumb
 1738              		.thumb_func
 1739              		.fpu fpv4-sp-d16
 1740              		.type	ProcessImage, %function
 1741              	ProcessImage:
 1742              	.LFB259:
 1743              		.loc 1 89 0
 1744              		.cfi_startproc
 1745              		@ args = 0, pretend = 0, frame = 672
 1746              		@ frame_needed = 0, uses_anonymous_args = 0
 1747              	.LVL153:
 1748 0000 2DE9F04F 		push	{r4, r5, r6, r7, r8, r9, r10, fp, lr}
 1749              		.cfi_def_cfa_offset 36
 1750              		.cfi_offset 4, -36
 1751              		.cfi_offset 5, -32
 1752              		.cfi_offset 6, -28
 1753              		.cfi_offset 7, -24
 1754              		.cfi_offset 8, -20
 1755              		.cfi_offset 9, -16
 1756              		.cfi_offset 10, -12
 1757              		.cfi_offset 11, -8
 1758              		.cfi_offset 14, -4
 1759 0004 2DED028B 		vpush.64	{d8}
 1760              		.cfi_def_cfa_offset 44
 1761              		.cfi_offset 80, -44
 1762              		.cfi_offset 81, -40
 1763              	.LBB164:
 1764              	.LBB165:
 1765              		.loc 2 135 0
 1766 0008 724A     		ldr	r2, .L160
 1767              	.LBE165:
ARM GAS  /var/folders/gd/b85s80v10ws684278k5gqzcr0000gn/T//ccpw5ivX.s 			page 32


 1768              	.LBE164:
 1769              		.loc 1 89 0
 1770 000a 734B     		ldr	r3, .L160+4
 1771              	.LBB167:
 1772              	.LBB166:
 1773              		.loc 2 135 0
 1774 000c 9269     		ldr	r2, [r2, #24]
 1775 000e 7349     		ldr	r1, .L160+8
 1776 0010 9161     		str	r1, [r2, #24]
 1777              	.LBE166:
 1778              	.LBE167:
 1779              		.loc 1 89 0
 1780 0012 ADF52F7D 		sub	sp, sp, #700
 1781              		.cfi_def_cfa_offset 744
 1782              		.loc 1 89 0
 1783 0016 1B68     		ldr	r3, [r3]
 1784 0018 AD93     		str	r3, [sp, #692]
 1785              		.loc 1 95 0
 1786 001a 4FF42072 		mov	r2, #640
 1787 001e 0021     		movs	r1, #0
 1788 0020 0DA8     		add	r0, sp, #52
 1789              	.LVL154:
 1790 0022 FFF7FEFF 		bl	memset
 1791              	.LVL155:
 1792              		.loc 1 112 0
 1793 0026 4FF47A70 		mov	r0, #1000
 1794 002a FFF7FEFF 		bl	chThdSleep
 1795              	.LVL156:
 1796              		.loc 1 110 0
 1797 002e 4FF00009 		mov	r9, #0
 1798              	.LBB168:
 1799              	.LBB169:
 1800              		.loc 1 169 0
 1801 0032 9FED6B8A 		vldr.32	s16, .L160+12
 1802              	.LBE169:
 1803              	.LBE168:
 1804              		.loc 1 109 0
 1805 0036 4F46     		mov	r7, r9
 1806 0038 CB46     		mov	fp, r9
 1807 003a CA46     		mov	r10, r9
 1808 003c 0CAE     		add	r6, sp, #48
 1809 003e 0BAD     		add	r5, sp, #44
 1810 0040 0AAC     		add	r4, sp, #40
 1811 0042 0DF2B328 		addw	r8, sp, #691
 1812              	.LVL157:
 1813              	.L142:
 1814              	.LBB179:
 1815              	.LBB180:
 1816              		.loc 4 143 0
 1817 0046 6748     		ldr	r0, .L160+16
 1818 0048 FFF7FEFF 		bl	chSemWait
 1819              	.LVL158:
 1820              	.LBE180:
 1821              	.LBE179:
 1822              		.loc 1 118 0
 1823 004c FFF7FEFF 		bl	dcmi_get_last_image_ptr
 1824              	.LVL159:
ARM GAS  /var/folders/gd/b85s80v10ws684278k5gqzcr0000gn/T//ccpw5ivX.s 			page 33


 1825              		.loc 1 121 0
 1826 0050 B9F1130F 		cmp	r9, #19
 1827 0054 3AD9     		bls	.L157
 1828              		.loc 1 141 0
 1829 0056 A9F11403 		sub	r3, r9, #20
 1830 005a 132B     		cmp	r3, #19
 1831 005c 6CD8     		bhi	.L146
 1832 005e 00F5A062 		add	r2, r0, #1280
 1833              	.LVL160:
 1834              	.L147:
 1835              	.LBB181:
 1836              	.LBB182:
 1837              	.LBB183:
 1838              		.loc 1 359 0
 1839 0062 0178     		ldrb	r1, [r0]	@ zero_extendqisi2
 1840 0064 4378     		ldrb	r3, [r0, #1]	@ zero_extendqisi2
 1841 0066 03EB0123 		add	r3, r3, r1, lsl #8
 1842 006a 9BB2     		uxth	r3, r3
 1843              	.LVL161:
 1844 006c 0230     		adds	r0, r0, #2
 1845              		.loc 1 360 0
 1846 006e 4FEAD32C 		lsr	ip, r3, #11
 1847              	.LBE183:
 1848              	.LBE182:
 1849              		.loc 1 146 0
 1850 0072 C3F34511 		ubfx	r1, r3, #5, #6
 1851              		.loc 1 142 0
 1852 0076 8242     		cmp	r2, r0
 1853              	.LBB185:
 1854              	.LBB184:
 1855              		.loc 1 362 0
 1856 0078 03F01F03 		and	r3, r3, #31
 1857              	.LVL162:
 1858              	.LBE184:
 1859              	.LBE185:
 1860              		.loc 1 145 0
 1861 007c 0AEB4C0A 		add	r10, r10, ip, lsl #1
 1862              	.LVL163:
 1863              		.loc 1 146 0
 1864 0080 8B44     		add	fp, fp, r1
 1865              	.LVL164:
 1866              		.loc 1 147 0
 1867 0082 07EB4307 		add	r7, r7, r3, lsl #1
 1868              	.LVL165:
 1869              		.loc 1 142 0
 1870 0086 ECD1     		bne	.L147
 1871              	.LBE181:
 1872              		.loc 1 149 0
 1873 0088 09F10109 		add	r9, r9, #1
 1874              	.LVL166:
 1875 008c 5FFA89F9 		uxtb	r9, r9
 1876              	.LVL167:
 1877              		.loc 1 150 0
 1878 0090 B9F1280F 		cmp	r9, #40
 1879 0094 D7D1     		bne	.L142
 1880              	.LVL168:
 1881              		.loc 1 154 0
ARM GAS  /var/folders/gd/b85s80v10ws684278k5gqzcr0000gn/T//ccpw5ivX.s 			page 34


 1882 0096 544B     		ldr	r3, .L160+20
 1883              		.loc 1 158 0
 1884 0098 0294     		str	r4, [sp, #8]
 1885              	.LVL169:
 1886              		.loc 1 154 0
 1887 009a A3FB0721 		umull	r2, r1, r3, r7
 1888              	.LVL170:
 1889              		.loc 1 153 0
 1890 009e A3FB0B02 		umull	r0, r2, r3, fp
 1891              		.loc 1 158 0
 1892 00a2 C1F30731 		ubfx	r1, r1, #12, #8
 1893              		.loc 1 152 0
 1894 00a6 A3FB0A03 		umull	r0, r3, r3, r10
 1895              		.loc 1 158 0
 1896 00aa C2F30732 		ubfx	r2, r2, #12, #8
 1897 00ae CDE90021 		strd	r2, r1, [sp]
 1898              		.loc 1 157 0
 1899 00b2 0027     		movs	r7, #0
 1900              	.LVL171:
 1901              		.loc 1 158 0
 1902 00b4 C3F30733 		ubfx	r3, r3, #12, #8
 1903 00b8 CDE90356 		strd	r5, r6, [sp, #12]
 1904 00bc 099A     		ldr	r2, [sp, #36]
 1905 00be DDE90710 		ldrd	r1, r0, [sp, #28]
 1906 00c2 FFF7FEFF 		bl	compute_weights
 1907              	.LVL172:
 1908              		.loc 1 156 0
 1909 00c6 BB46     		mov	fp, r7
 1910              	.LVL173:
 1911              		.loc 1 155 0
 1912 00c8 BA46     		mov	r10, r7
 1913              	.LVL174:
 1914 00ca BCE7     		b	.L142
 1915              	.LVL175:
 1916              	.L157:
 1917 00cc 00F12802 		add	r2, r0, #40
 1918              	.LVL176:
 1919              	.L144:
 1920              	.LBB186:
 1921              	.LBB187:
 1922              	.LBB188:
 1923              		.loc 1 359 0
 1924 00d0 90F86C12 		ldrb	r1, [r0, #620]	@ zero_extendqisi2
 1925 00d4 90F86D32 		ldrb	r3, [r0, #621]	@ zero_extendqisi2
 1926 00d8 03EB0123 		add	r3, r3, r1, lsl #8
 1927 00dc 9BB2     		uxth	r3, r3
 1928              	.LVL177:
 1929 00de 0230     		adds	r0, r0, #2
 1930              		.loc 1 360 0
 1931 00e0 4FEAD32C 		lsr	ip, r3, #11
 1932              	.LBE188:
 1933              	.LBE187:
 1934              		.loc 1 126 0
 1935 00e4 C3F34511 		ubfx	r1, r3, #5, #6
 1936              		.loc 1 122 0
 1937 00e8 8242     		cmp	r2, r0
 1938              	.LBB190:
ARM GAS  /var/folders/gd/b85s80v10ws684278k5gqzcr0000gn/T//ccpw5ivX.s 			page 35


 1939              	.LBB189:
 1940              		.loc 1 362 0
 1941 00ea 03F01F03 		and	r3, r3, #31
 1942              	.LVL178:
 1943              	.LBE189:
 1944              	.LBE190:
 1945              		.loc 1 125 0
 1946 00ee 0AEB4C0A 		add	r10, r10, ip, lsl #1
 1947              	.LVL179:
 1948              		.loc 1 126 0
 1949 00f2 8B44     		add	fp, fp, r1
 1950              	.LVL180:
 1951              		.loc 1 127 0
 1952 00f4 07EB4307 		add	r7, r7, r3, lsl #1
 1953              	.LVL181:
 1954              		.loc 1 122 0
 1955 00f8 EAD1     		bne	.L144
 1956              	.LBE186:
 1957              		.loc 1 129 0
 1958 00fa 09F10109 		add	r9, r9, #1
 1959              	.LVL182:
 1960 00fe 5FFA89F9 		uxtb	r9, r9
 1961              	.LVL183:
 1962              		.loc 1 130 0
 1963 0102 B9F1140F 		cmp	r9, #20
 1964 0106 9ED1     		bne	.L142
 1965              		.loc 1 132 0
 1966 0108 374B     		ldr	r3, .L160+20
 1967 010a A3FB0A2A 		umull	r2, r10, r3, r10
 1968              	.LVL184:
 1969              		.loc 1 133 0
 1970 010e A3FB0B2B 		umull	r2, fp, r3, fp
 1971              	.LVL185:
 1972              		.loc 1 134 0
 1973 0112 A3FB0723 		umull	r2, r3, r3, r7
 1974              		.loc 1 132 0
 1975 0116 CAF3C712 		ubfx	r2, r10, #7, #8
 1976              		.loc 1 137 0
 1977 011a 0027     		movs	r7, #0
 1978              	.LVL186:
 1979              		.loc 1 132 0
 1980 011c 0892     		str	r2, [sp, #32]
 1981              	.LVL187:
 1982              		.loc 1 134 0
 1983 011e C3F3C713 		ubfx	r3, r3, #7, #8
 1984              		.loc 1 133 0
 1985 0122 CBF3C712 		ubfx	r2, fp, #7, #8
 1986              		.loc 1 138 0
 1987 0126 40F6B830 		movw	r0, #3000
 1988              	.LVL188:
 1989              		.loc 1 133 0
 1990 012a 0792     		str	r2, [sp, #28]
 1991              	.LVL189:
 1992              		.loc 1 134 0
 1993 012c 0993     		str	r3, [sp, #36]
 1994              	.LVL190:
 1995              		.loc 1 136 0
ARM GAS  /var/folders/gd/b85s80v10ws684278k5gqzcr0000gn/T//ccpw5ivX.s 			page 36


 1996 012e BB46     		mov	fp, r7
 1997              		.loc 1 138 0
 1998 0130 FFF7FEFF 		bl	chThdSleep
 1999              	.LVL191:
 2000              		.loc 1 135 0
 2001 0134 BA46     		mov	r10, r7
 2002 0136 86E7     		b	.L142
 2003              	.LVL192:
 2004              	.L146:
 2005              	.LBB191:
 2006              	.LBB176:
 2007              		.loc 1 167 0
 2008 0138 D4ED005A 		vldr.32	s11, [r4]
 2009 013c 95ED006A 		vldr.32	s12, [r5]
 2010 0140 D6ED006A 		vldr.32	s13, [r6]
 2011 0144 421C     		adds	r2, r0, #1
 2012 0146 0DF13301 		add	r1, sp, #51
 2013 014a 10E0     		b	.L149
 2014              	.LVL193:
 2015              	.L159:
 2016              		.loc 1 169 0
 2017 014c F4EEC87A 		vcmpe.f32	s15, s16
 2018 0150 F1EE10FA 		vmrs	APSR_nzcv, FPSCR
 2019 0154 3CDC     		bgt	.L152
 2020 0156 FCEEE77A 		vcvt.u32.f32	s15, s15
 2021              	.LVL194:
 2022 015a CDED067A 		vstr.32	s15, [sp, #24]	@ int
 2023 015e 9DF81830 		ldrb	r3, [sp, #24]	@ zero_extendqisi2
 2024              	.L148:
 2025              	.LVL195:
 2026              		.loc 1 170 0 discriminator 2
 2027 0162 01F8013F 		strb	r3, [r1, #1]!
 2028              	.LVL196:
 2029              	.LBE176:
 2030              		.loc 1 162 0 discriminator 2
 2031 0166 8845     		cmp	r8, r1
 2032 0168 02F10202 		add	r2, r2, #2
 2033 016c 2AD0     		beq	.L158
 2034              	.LVL197:
 2035              	.L149:
 2036              	.LBB177:
 2037              	.LBB170:
 2038              	.LBB171:
 2039              		.loc 1 359 0
 2040 016e 12F8010C 		ldrb	r0, [r2, #-1]	@ zero_extendqisi2
 2041 0172 1378     		ldrb	r3, [r2]	@ zero_extendqisi2
 2042 0174 03EB0023 		add	r3, r3, r0, lsl #8
 2043 0178 9BB2     		uxth	r3, r3
 2044              	.LVL198:
 2045              	.LBE171:
 2046              	.LBE170:
 2047              		.loc 1 167 0
 2048 017a C3F34510 		ubfx	r0, r3, #5, #6
 2049 017e 07EE900A 		vmov	s15, r0	@ int
 2050              	.LBB174:
 2051              	.LBB172:
 2052              		.loc 1 360 0
ARM GAS  /var/folders/gd/b85s80v10ws684278k5gqzcr0000gn/T//ccpw5ivX.s 			page 37


 2053 0182 D80A     		lsrs	r0, r3, #11
 2054              	.LBE172:
 2055              	.LBE174:
 2056              		.loc 1 167 0
 2057 0184 4000     		lsls	r0, r0, #1
 2058 0186 F8EEE77A 		vcvt.f32.s32	s15, s15
 2059 018a 07EE100A 		vmov	s14, r0	@ int
 2060 018e 67EE867A 		vmul.f32	s15, s15, s12
 2061 0192 B8EEC77A 		vcvt.f32.s32	s14, s14
 2062              	.LBB175:
 2063              	.LBB173:
 2064              		.loc 1 362 0
 2065 0196 03F01F03 		and	r3, r3, #31
 2066              	.LVL199:
 2067              	.LBE173:
 2068              	.LBE175:
 2069              		.loc 1 167 0
 2070 019a 5B00     		lsls	r3, r3, #1
 2071 019c E7EE257A 		vfma.f32	s15, s14, s11
 2072 01a0 07EE103A 		vmov	s14, r3	@ int
 2073 01a4 B8EEC77A 		vcvt.f32.s32	s14, s14
 2074 01a8 E7EE267A 		vfma.f32	s15, s14, s13
 2075              	.LVL200:
 2076              		.loc 1 168 0
 2077 01ac F5EEC07A 		vcmpe.f32	s15, #0
 2078 01b0 F1EE10FA 		vmrs	APSR_nzcv, FPSCR
 2079 01b4 CAD5     		bpl	.L159
 2080 01b6 0023     		movs	r3, #0
 2081              	.LVL201:
 2082              		.loc 1 170 0
 2083 01b8 01F8013F 		strb	r3, [r1, #1]!
 2084              	.LVL202:
 2085              	.LBE177:
 2086              		.loc 1 162 0
 2087 01bc 8845     		cmp	r8, r1
 2088 01be 02F10202 		add	r2, r2, #2
 2089 01c2 D4D1     		bne	.L149
 2090              	.LVL203:
 2091              	.L158:
 2092              	.LBE191:
 2093              		.loc 1 173 0
 2094 01c4 4FF42071 		mov	r1, #640
 2095 01c8 0DA8     		add	r0, sp, #52
 2096 01ca FFF7FEFF 		bl	SendUint8ToComputer
 2097              	.LVL204:
 2098 01ce 3AE7     		b	.L142
 2099              	.LVL205:
 2100              	.L152:
 2101              	.LBB192:
 2102              	.LBB178:
 2103 01d0 FF23     		movs	r3, #255
 2104 01d2 C6E7     		b	.L148
 2105              	.L161:
 2106              		.align	2
 2107              	.L160:
 2108 01d4 00000000 		.word	ch
 2109 01d8 00000000 		.word	__stack_chk_guard
ARM GAS  /var/folders/gd/b85s80v10ws684278k5gqzcr0000gn/T//ccpw5ivX.s 			page 38


 2110 01dc 00000000 		.word	.LANCHOR7
 2111 01e0 00007F43 		.word	1132396544
 2112 01e4 00000000 		.word	.LANCHOR1
 2113 01e8 1F85EB51 		.word	1374389535
 2114              	.LBE178:
 2115              	.LBE192:
 2116              		.cfi_endproc
 2117              	.LFE259:
 2118              		.size	ProcessImage, .-ProcessImage
 2119              		.section	.bss.hor_dist,"aw",%nobits
 2120              		.align	2
 2121              		.set	.LANCHOR4,. + 0
 2122              		.type	hor_dist, %object
 2123              		.size	hor_dist, 4
 2124              	hor_dist:
 2125 0000 00000000 		.space	4
 2126              		.section	.bss.real_dist,"aw",%nobits
 2127              		.align	2
 2128              		.set	.LANCHOR3,. + 0
 2129              		.type	real_dist, %object
 2130              		.size	real_dist, 4
 2131              	real_dist:
 2132 0000 00000000 		.space	4
 2133              		.section	.bss.waCaptureImage,"aw",%nobits
 2134              		.align	3
 2135              		.set	.LANCHOR6,. + 0
 2136              		.type	waCaptureImage, %object
 2137              		.size	waCaptureImage, 632
 2138              	waCaptureImage:
 2139 0000 00000000 		.space	632
 2139      00000000 
 2139      00000000 
 2139      00000000 
 2139      00000000 
 2140              		.section	.bss.waProcessImage,"aw",%nobits
 2141              		.align	3
 2142              		.set	.LANCHOR5,. + 0
 2143              		.type	waProcessImage, %object
 2144              		.size	waProcessImage, 1400
 2145              	waProcessImage:
 2146 0000 00000000 		.space	1400
 2146      00000000 
 2146      00000000 
 2146      00000000 
 2146      00000000 
 2147              		.section	.data.image_ready_sem,"aw",%progbits
 2148              		.align	2
 2149              		.set	.LANCHOR1,. + 0
 2150              		.type	image_ready_sem, %object
 2151              		.size	image_ready_sem, 12
 2152              	image_ready_sem:
 2153 0000 00000000 		.word	image_ready_sem
 2154 0004 00000000 		.word	image_ready_sem
 2155 0008 00000000 		.word	0
 2156              		.section	.rodata.SendUint8ToComputer.str1.4,"aMS",%progbits,1
 2157              		.align	2
 2158              	.LC0:
ARM GAS  /var/folders/gd/b85s80v10ws684278k5gqzcr0000gn/T//ccpw5ivX.s 			page 39


 2159 0000 53544152 		.ascii	"START\000"
 2159      5400
 2160              		.section	.rodata.__FUNCTION__.11878,"a",%progbits
 2161              		.align	2
 2162              		.set	.LANCHOR0,. + 0
 2163              		.type	__FUNCTION__.11878, %object
 2164              		.size	__FUNCTION__.11878, 13
 2165              	__FUNCTION__.11878:
 2166 0000 43617074 		.ascii	"CaptureImage\000"
 2166      75726549 
 2166      6D616765 
 2166      00
 2167              		.section	.rodata.__FUNCTION__.11884,"a",%progbits
 2168              		.align	2
 2169              		.set	.LANCHOR7,. + 0
 2170              		.type	__FUNCTION__.11884, %object
 2171              		.size	__FUNCTION__.11884, 13
 2172              	__FUNCTION__.11884:
 2173 0000 50726F63 		.ascii	"ProcessImage\000"
 2173      65737349 
 2173      6D616765 
 2173      00
 2174              		.section	.rodata.__func__.7153,"a",%progbits
 2175              		.align	2
 2176              		.set	.LANCHOR2,. + 0
 2177              		.type	__func__.7153, %object
 2178              		.size	__func__.7153, 12
 2179              	__func__.7153:
 2180 0000 63685379 		.ascii	"chSysUnlock\000"
 2180      73556E6C 
 2180      6F636B00 
 2181              		.text
 2182              	.Letext0:
 2183              		.file 6 "/Applications/Eclipse_e-puck2.app/Contents/Eclipse_e-puck2/Tools/gcc-arm-none-eabi-7-2017
 2184              		.file 7 "/Applications/Eclipse_e-puck2.app/Contents/Eclipse_e-puck2/Tools/gcc-arm-none-eabi-7-2017
 2185              		.file 8 "/Applications/Eclipse_e-puck2.app/Contents/Eclipse_e-puck2/Tools/gcc-arm-none-eabi-7-2017
 2186              		.file 9 "../../lib/e-puck2_main-processor/ChibiOS//os/rt/ports/ARMCMx/compilers/GCC/chtypes.h"
 2187              		.file 10 "../../lib/e-puck2_main-processor/ChibiOS//os/rt/include/chsystypes.h"
 2188              		.file 11 "../../lib/e-puck2_main-processor/ChibiOS//os/rt/include/chschd.h"
 2189              		.file 12 "../../lib/e-puck2_main-processor/ChibiOS//os/ext/CMSIS/include/core_cm4.h"
 2190              		.file 13 "../../lib/e-puck2_main-processor/ChibiOS//os/ext/CMSIS/ST/system_stm32f4xx.h"
 2191              		.file 14 "../../lib/e-puck2_main-processor/ChibiOS//os/ext/CMSIS/ST/stm32f407xx.h"
 2192              		.file 15 "../../lib/e-puck2_main-processor/ChibiOS//os/rt/ports/ARMCMx/chcore.h"
 2193              		.file 16 "../../lib/e-puck2_main-processor/ChibiOS//os/rt/ports/ARMCMx/chcore_v7m.h"
 2194              		.file 17 "../../lib/e-puck2_main-processor/ChibiOS//os/rt/include/chdebug.h"
 2195              		.file 18 "../../lib/e-puck2_main-processor/ChibiOS//os/rt/include/chtm.h"
 2196              		.file 19 "../../lib/e-puck2_main-processor/ChibiOS//os/rt/include/chstats.h"
 2197              		.file 20 "../../lib/e-puck2_main-processor/ChibiOS//os/rt/include/chsem.h"
 2198              		.file 21 "../../lib/e-puck2_main-processor/ChibiOS//os/rt/include/chmtx.h"
 2199              		.file 22 "../../lib/e-puck2_main-processor/ChibiOS//os/rt/include/chevents.h"
 2200              		.file 23 "../../lib/e-puck2_main-processor/ChibiOS//os/rt/include/chqueues.h"
 2201              		.file 24 "../../lib/e-puck2_main-processor/ChibiOS//os/rt/include/chstreams.h"
 2202              		.file 25 "../../lib/e-puck2_main-processor/ChibiOS//os/hal/ports/STM32/STM32F4xx/stm32_dma.h"
 2203              		.file 26 "../../lib/e-puck2_main-processor/ChibiOS//os/hal/include/hal_ioblock.h"
 2204              		.file 27 "../../lib/e-puck2_main-processor/ChibiOS//os/hal/ports/STM32/LLD/GPIOv2/pal_lld.h"
 2205              		.file 28 "../../lib/e-puck2_main-processor/ChibiOS//os/hal/include/adc.h"
 2206              		.file 29 "../../lib/e-puck2_main-processor/ChibiOS//os/hal/ports/STM32/STM32F4xx/adc_lld.h"
ARM GAS  /var/folders/gd/b85s80v10ws684278k5gqzcr0000gn/T//ccpw5ivX.s 			page 40


 2207              		.file 30 "../../lib/e-puck2_main-processor/ChibiOS//os/hal/include/can.h"
 2208              		.file 31 "../../lib/e-puck2_main-processor/ChibiOS//os/hal/ports/STM32/LLD/can_lld.h"
 2209              		.file 32 "../../lib/e-puck2_main-processor/ChibiOS//os/hal/include/dac.h"
 2210              		.file 33 "../../lib/e-puck2_main-processor/ChibiOS//os/hal/ports/STM32/LLD/DACv1/dac_lld.h"
 2211              		.file 34 "../../lib/e-puck2_main-processor/ChibiOS//os/hal/include/ext.h"
 2212              		.file 35 "../../lib/e-puck2_main-processor/ChibiOS//os/hal/ports/STM32/LLD/ext_lld.h"
 2213              		.file 36 "../../lib/e-puck2_main-processor/ChibiOS//os/hal/include/gpt.h"
 2214              		.file 37 "../../lib/e-puck2_main-processor/ChibiOS//os/hal/ports/STM32/LLD/TIMv1/gpt_lld.h"
 2215              		.file 38 "../../lib/e-puck2_main-processor/ChibiOS//os/hal/ports/STM32/LLD/TIMv1/stm32_tim.h"
 2216              		.file 39 "../../lib/e-puck2_main-processor/ChibiOS//os/hal/include/i2c.h"
 2217              		.file 40 "../../lib/e-puck2_main-processor/ChibiOS//os/hal/ports/STM32/LLD/I2Cv1/i2c_lld.h"
 2218              		.file 41 "../../lib/e-puck2_main-processor/ChibiOS//os/hal/include/i2s.h"
 2219              		.file 42 "../../lib/e-puck2_main-processor/ChibiOS//os/hal/ports/STM32/LLD/SPIv1/i2s_lld.h"
 2220              		.file 43 "../../lib/e-puck2_main-processor/ChibiOS//os/hal/include/pwm.h"
 2221              		.file 44 "../../lib/e-puck2_main-processor/ChibiOS//os/hal/ports/STM32/LLD/TIMv1/pwm_lld.h"
 2222              		.file 45 "../../lib/e-puck2_main-processor/ChibiOS//os/hal/include/serial.h"
 2223              		.file 46 "../../lib/e-puck2_main-processor/ChibiOS//os/hal/ports/STM32/LLD/USARTv1/serial_lld.h"
 2224              		.file 47 "../../lib/e-puck2_main-processor/ChibiOS//os/hal/include/sdc.h"
 2225              		.file 48 "../../lib/e-puck2_main-processor/ChibiOS//os/hal/ports/STM32/LLD/sdc_lld.h"
 2226              		.file 49 "../../lib/e-puck2_main-processor/ChibiOS//os/hal/include/spi.h"
 2227              		.file 50 "../../lib/e-puck2_main-processor/ChibiOS//os/hal/ports/STM32/LLD/SPIv1/spi_lld.h"
 2228              		.file 51 "../../lib/e-puck2_main-processor/ChibiOS//os/hal/include/usb.h"
 2229              		.file 52 "../../lib/e-puck2_main-processor/ChibiOS//os/hal/ports/STM32/LLD/OTGv1/usb_lld.h"
 2230              		.file 53 "../../lib/e-puck2_main-processor/ChibiOS//os/hal/ports/STM32/LLD/OTGv1/stm32_otg.h"
 2231              		.file 54 "../../lib/e-puck2_main-processor/ChibiOS//os/hal/include/serial_usb.h"
 2232              		.file 55 "../../lib/e-puck2_main-processor/src/usbcfg.h"
 2233              		.file 56 "/Applications/Eclipse_e-puck2.app/Contents/Eclipse_e-puck2/Tools/gcc-arm-none-eabi-7-201
 2234              		.file 57 "/Applications/Eclipse_e-puck2.app/Contents/Eclipse_e-puck2/Tools/gcc-arm-none-eabi-7-201
 2235              		.file 58 "/Applications/Eclipse_e-puck2.app/Contents/Eclipse_e-puck2/Tools/gcc-arm-none-eabi-7-201
 2236              		.file 59 "/Applications/Eclipse_e-puck2.app/Contents/Eclipse_e-puck2/Tools/gcc-arm-none-eabi-7-201
 2237              		.file 60 "../../lib/e-puck2_main-processor/ChibiOS_ext/os/hal/include/../ports/STM32/STM32F4xx/dcm
 2238              		.file 61 "../../lib/e-puck2_main-processor/src/camera/po8030.h"
 2239              		.file 62 "../../lib/e-puck2_main-processor/src/camera/dcmi_camera.h"
 2240              		.file 63 "/Applications/Eclipse_e-puck2.app/Contents/Eclipse_e-puck2/Tools/gcc-arm-none-eabi-7-201
 2241              		.file 64 "../../lib/e-puck2_main-processor/src/msgbus/messagebus.h"
 2242              		.file 65 "/Applications/Eclipse_e-puck2.app/Contents/Eclipse_e-puck2/Tools/gcc-arm-none-eabi-7-201
 2243              		.file 66 "../../lib/e-puck2_main-processor/src/parameter/parameter.h"
 2244              		.file 67 "./main.h"
 2245              		.file 68 "../../lib/e-puck2_main-processor/ChibiOS//os/rt/include/chthreads.h"
 2246              		.file 69 "<built-in>"